
build/simulation/firmware.elf:     file format elf32-avr

Sections:
Idx Name          Size      VMA       LMA       File off  Algn
  0 .data         0000000e  00800100  00004632  000046e6  2**0
                  CONTENTS, ALLOC, LOAD, DATA
  1 .text         00004632  00000000  00000000  000000b4  2**1
                  CONTENTS, ALLOC, LOAD, READONLY, CODE
  2 .bss          0000069a  0080010e  0080010e  000046f4  2**0
                  ALLOC
  3 .noinit       00000008  008007a8  008007a8  000046f4  2**0
                  ALLOC
  4 .eeprom       00000050  00810000  00810000  000046f4  2**0
                  CONTENTS, ALLOC, LOAD, DATA
  5 .stab         000031bc  00000000  00000000  00004744  2**2
                  CONTENTS, READONLY, DEBUGGING
  6 .stabstr      0000099f  00000000  00000000  00007900  2**0
                  CONTENTS, READONLY, DEBUGGING
  7 .comment      00000011  00000000  00000000  0000829f  2**0
                  CONTENTS, READONLY

Disassembly of section .text:

00000000 <__vectors>:
       0:	0c 94 c5 06 	jmp	0xd8a	; 0xd8a <__ctors_end>
       4:	0c 94 e2 06 	jmp	0xdc4	; 0xdc4 <__bad_interrupt>
       8:	0c 94 e2 06 	jmp	0xdc4	; 0xdc4 <__bad_interrupt>
       c:	0c 94 e2 06 	jmp	0xdc4	; 0xdc4 <__bad_interrupt>
      10:	0c 94 a1 1a 	jmp	0x3542	; 0x3542 <__vector_4>
      14:	0c 94 e2 06 	jmp	0xdc4	; 0xdc4 <__bad_interrupt>
      18:	0c 94 e2 06 	jmp	0xdc4	; 0xdc4 <__bad_interrupt>
      1c:	0c 94 2e 19 	jmp	0x325c	; 0x325c <__vector_7>
      20:	0c 94 e2 06 	jmp	0xdc4	; 0xdc4 <__bad_interrupt>
      24:	0c 94 e2 06 	jmp	0xdc4	; 0xdc4 <__bad_interrupt>
      28:	0c 94 e2 06 	jmp	0xdc4	; 0xdc4 <__bad_interrupt>
      2c:	0c 94 e2 1a 	jmp	0x35c4	; 0x35c4 <__vector_11>
      30:	0c 94 e2 06 	jmp	0xdc4	; 0xdc4 <__bad_interrupt>
      34:	0c 94 e2 06 	jmp	0xdc4	; 0xdc4 <__bad_interrupt>
      38:	0c 94 b4 1b 	jmp	0x3768	; 0x3768 <__vector_14>
      3c:	0c 94 e2 06 	jmp	0xdc4	; 0xdc4 <__bad_interrupt>
      40:	0c 94 e2 06 	jmp	0xdc4	; 0xdc4 <__bad_interrupt>
      44:	0c 94 a7 1b 	jmp	0x374e	; 0x374e <__vector_17>
      48:	0c 94 4a 1b 	jmp	0x3694	; 0x3694 <__vector_18>
      4c:	0c 94 e2 06 	jmp	0xdc4	; 0xdc4 <__bad_interrupt>
      50:	0c 94 78 1b 	jmp	0x36f0	; 0x36f0 <__vector_20>
      54:	0c 94 f1 18 	jmp	0x31e2	; 0x31e2 <__vector_21>
      58:	0c 94 e2 06 	jmp	0xdc4	; 0xdc4 <__bad_interrupt>
      5c:	0c 94 e2 06 	jmp	0xdc4	; 0xdc4 <__bad_interrupt>
      60:	0c 94 e2 06 	jmp	0xdc4	; 0xdc4 <__bad_interrupt>
      64:	0c 94 e2 06 	jmp	0xdc4	; 0xdc4 <__bad_interrupt>
      68:	05 a8       	ldd	r0, Z+53	; 0x35
      6a:	4c cd       	rjmp	.-1384   	; 0xfffffb04 <__eeprom_end+0xff7efab4>
      6c:	b2 d4       	rcall	.+2404   	; 0x9d2 <s_playlist_item_30+0x24>
      6e:	4e b9       	out	0x0e, r20	; 14
      70:	38 36       	cpi	r19, 0x68	; 104
      72:	a9 02       	muls	r26, r25
      74:	0c 50       	subi	r16, 0x0C	; 12
      76:	b9 91       	ld	r27, Y+
      78:	86 88       	ldd	r8, Z+22	; 0x16
      7a:	08 3c       	cpi	r16, 0xC8	; 200
      7c:	a6 aa       	std	Z+54, r10	; 0x36
      7e:	aa 2a       	or	r10, r26
      80:	be 00       	.word	0x00be	; ????
      82:	00 00       	nop
      84:	80 3f       	cpi	r24, 0xF0	; 240

00000086 <master_playlist>:
      86:	01 24 f4 b2 08 0e 24 f4 b4 08 06 24 f4 b6 08 14     .$....$....$....
      96:	48 e8 b8 08 1f 90 d0 ba 08 01 68 89 c7 08 1f 90     H.........h.....
      a6:	d0 c9 08 19 53 07 d6 08 01 35 0c d8 08 17 e8 03     ....S....5......
      b6:	da 08 16 f4 01 dc 08 04 88 13 de 08 1f 35 0c e0     .............5..
      c6:	08 14 e2 04 11 09 00 e2 04 13 09 07 8a 02 15 09     ................
      d6:	15 53 07 17 09 1e 71 02 19 09 01 35 0c 1b 09 1f     .S....q....5....
      e6:	59 06 1d 09 0b d0 07 32 09 05 53 07 34 09 08 e2     Y......2..S.4...
      f6:	04 36 09 04 88 13 38 09 0a 71 02 3a 09 0e 88 13     .6....8..q.:....
     106:	3c 09 1f f9 15 3e 09 19 53 07 95 09 1f e2 04 97     <....>..S.......
     116:	09 01 4c 1d ac 09 1f 17 11 ae 09 1f 17 11 ef 09     ..L.............
     126:	04 98 3a 2d 0a 1f 35 0c 2f 0a 14 e2 04 63 0a 00     ..:-..5./....c..
     136:	4c 1d 65 0a 1f e2 04 67 0a 07 8a 02 79 0a 01 98     L.e....g....y...
     146:	3a 7b 0a 1f 59 06 7d 0a 1f 59 06 93 0a 0b 4c 1d     :{..Y.}..Y....L.
     156:	a8 0a 1f 88 13 aa 0a 04 98 3a 09 0b 0a 71 02 0b     .........:...q..
     166:	0b 0e 88 13 0d 0b 1f f9 15 0f 0b 1f 88 13 66 0b     ..............f.
     176:	1f 17 11 aa 0b 01 20 a1 d6 0b 0e 90 d0 d8 0b        ...... ........

00000185 <effects>:
     185:	da 0b 00 00 14 0a 01 04 e3 0b 00 00 83 0a 01 04     ................
     195:	e8 0b 9b 0a 00 00 00 04 f1 0b d0 15 b1 0a 01 04     ................
     1a5:	f8 0b e4 06 aa 0c 00 05 fe 0b f3 09 26 16 00 06     ............&...
     1b5:	0a 0c 00 00 95 0a 01 04 11 0c 00 00 89 0e 01 04     ................
     1c5:	17 0c 00 00 10 10 01 04 1f 0c 00 00 f5 13 00 04     ................
     1d5:	25 0c 00 00 e9 0f 01 04 2a 0c ee 06 f5 17 01 04     %.......*.......
     1e5:	2f 0c 6e 0a 00 00 00 04 38 0c 00 00 6d 07 00 04     /.n.....8...m...
     1f5:	42 0c 00 00 89 0a 01 04 47 0c 00 00 cd 0f 01 04     B.......G.......
     205:	4e 0c e8 06 e9 06 01 04 57 0c 00 00 00 0b 01 04     N.......W.......
     215:	5e 0c 00 00 8f 0a 01 04 67 0c 00 00 97 10 01 04     ^.......g.......
     225:	6e 0c bd 0c c0 0c 01 0c 7b 0c 1f 0c f1 16 00 04     n.......{.......
     235:	80 0c 9e 13 00 00 00 04 85 0c 39 0c 84 15 00 04     ..........9.....
     245:	8e 0c 00 00 6f 13 00 04 98 0c ea 06 b5 0b 01 7d     ....o..........}
     255:	a2 0c ae 13 00 00 00 04 a7 0c 3c 17 23 0b 00 04     ..........<.#...
     265:	b1 0c 00 00 be 13 01 04 b6 0c 00 00 50 0b 01 04     ............P...
     275:	c3 0c 92 17 5f 14 00 04 cd 0c 00 00 f1 0b 01 04     ...._...........

00000285 <default_text.1566>:
     285:	05 45 52 52 4f 52 00                                .ERROR.

0000028c <font8x8_basic>:
	...
     394:	18 3c 3c 18 18 00 18 00 36 36 00 00 00 00 00 00     .<<.....66......
     3a4:	36 36 7f 36 7f 36 36 00 0c 3e 03 1e 30 1f 0c 00     66.6.66..>..0...
     3b4:	00 63 33 18 0c 66 63 00 1c 36 1c 6e 3b 33 6e 00     .c3..fc..6.n;3n.
     3c4:	06 06 03 00 00 00 00 00 18 0c 06 06 06 0c 18 00     ................
     3d4:	06 0c 18 18 18 0c 06 00 00 66 3c ff 3c 66 00 00     .........f<.<f..
     3e4:	00 0c 0c 3f 0c 0c 00 00 00 00 00 00 00 0c 0c 06     ...?............
     3f4:	00 00 00 3f 00 00 00 00 00 00 00 00 00 0c 0c 00     ...?............
     404:	60 30 18 0c 06 03 01 00 3e 63 73 7b 6f 67 3e 00     `0......>cs{og>.
     414:	0c 0e 0c 0c 0c 0c 3f 00 1e 33 30 1c 06 33 3f 00     ......?..30..3?.
     424:	1e 33 30 1c 30 33 1e 00 38 3c 36 33 7f 30 78 00     .30.03..8<63.0x.
     434:	3f 03 1f 30 30 33 1e 00 1c 06 03 1f 33 33 1e 00     ?..003......33..
     444:	3f 33 30 18 0c 0c 0c 00 1e 33 33 1e 33 33 1e 00     ?30......33.33..
     454:	1e 33 33 3e 30 18 0e 00 00 0c 0c 00 00 0c 0c 00     .33>0...........
     464:	00 0c 0c 00 00 0c 0c 06 18 0c 06 03 06 0c 18 00     ................
     474:	00 00 3f 00 00 3f 00 00 06 0c 18 30 18 0c 06 00     ..?..?.....0....
     484:	1e 33 30 18 0c 00 0c 00 3e 63 7b 7b 7b 03 1e 00     .30.....>c{{{...
     494:	0c 1e 33 33 3f 33 33 00 3f 66 66 3e 66 66 3f 00     ..33?33.?ff>ff?.
     4a4:	3c 66 03 03 03 66 3c 00 1f 36 66 66 66 36 1f 00     <f...f<..6fff6..
     4b4:	7f 46 16 1e 16 46 7f 00 7f 46 16 1e 16 06 0f 00     .F...F...F......
     4c4:	3c 66 03 03 73 66 7c 00 33 33 33 3f 33 33 33 00     <f..sf|.333?333.
     4d4:	1e 0c 0c 0c 0c 0c 1e 00 78 30 30 30 33 33 1e 00     ........x00033..
     4e4:	67 66 36 1e 36 66 67 00 0f 06 06 06 46 66 7f 00     gf6.6fg.....Ff..
     4f4:	63 77 7f 7f 6b 63 63 00 63 67 6f 7b 73 63 63 00     cw..kcc.cgo{scc.
     504:	1c 36 63 63 63 36 1c 00 3f 66 66 3e 06 06 0f 00     .6ccc6..?ff>....
     514:	1e 33 33 33 3b 1e 38 00 3f 66 66 3e 36 66 67 00     .333;.8.?ff>6fg.
     524:	1e 33 07 0e 38 33 1e 00 3f 2d 0c 0c 0c 0c 1e 00     .3..83..?-......
     534:	33 33 33 33 33 33 3f 00 33 33 33 33 33 1e 0c 00     333333?.33333...
     544:	63 63 63 6b 7f 77 63 00 63 63 36 1c 1c 36 63 00     ccck.wc.cc6..6c.
     554:	33 33 33 1e 0c 0c 1e 00 7f 63 31 18 4c 66 7f 00     333......c1.Lf..
     564:	1e 06 06 06 06 06 1e 00 03 06 0c 18 30 60 40 00     ............0`@.
     574:	1e 18 18 18 18 18 1e 00 08 1c 36 63 00 00 00 00     ..........6c....
     584:	00 00 00 00 00 00 00 ff 0c 0c 18 00 00 00 00 00     ................
     594:	00 00 1e 30 3e 33 6e 00 07 06 06 3e 66 66 3b 00     ...0>3n....>ff;.
     5a4:	00 00 1e 33 03 33 1e 00 38 30 30 3e 33 33 6e 00     ...3.3..800>33n.
     5b4:	00 00 1e 33 3f 03 1e 00 1c 36 06 0f 06 06 0f 00     ...3?....6......
     5c4:	00 00 6e 33 33 3e 30 1f 07 06 36 6e 66 66 67 00     ..n33>0...6nffg.
     5d4:	0c 00 0e 0c 0c 0c 1e 00 30 00 30 30 30 33 33 1e     ........0.00033.
     5e4:	07 06 66 36 1e 36 67 00 0e 0c 0c 0c 0c 0c 1e 00     ..f6.6g.........
     5f4:	00 00 33 7f 7f 6b 63 00 00 00 1f 33 33 33 33 00     ..3..kc....3333.
     604:	00 00 1e 33 33 33 1e 00 00 00 3b 66 66 3e 06 0f     ...333....;ff>..
     614:	00 00 6e 33 33 3e 30 78 00 00 3b 6e 66 06 0f 00     ..n33>0x..;nf...
     624:	00 00 3e 03 1e 30 1f 00 08 0c 3e 0c 0c 2c 18 00     ..>..0....>..,..
     634:	00 00 33 33 33 33 6e 00 00 00 33 33 33 1e 0c 00     ..3333n...333...
     644:	00 00 63 6b 7f 7f 36 00 00 00 63 36 1c 36 63 00     ..ck..6...c6.6c.
     654:	00 00 33 33 33 3e 30 1f 00 00 3f 19 0c 26 3f 00     ..333>0...?..&?.
     664:	38 0c 0c 07 0c 0c 38 00 18 18 18 00 18 18 18 00     8.....8.........
     674:	07 0c 0c 38 0c 0c 07 00 6e 3b 00 00 00 00 00 00     ...8....n;......
	...

0000068c <weber_fechner_table>:
	...
     6a4:	00 00 0b 00 0b 00 0b 00 0b 00 0b 00 0b 00 0b 00     ................
     6b4:	0b 00 0b 00 0b 00 0b 00 0b 00 0b 00 0b 00 0b 00     ................
     6c4:	0b 00 0c 00 0c 00 0c 00 0c 00 0c 00 0c 00 0c 00     ................
     6d4:	0c 00 0c 00 0c 00 0d 00 0d 00 0d 00 0d 00 0d 00     ................
     6e4:	0d 00 0d 00 0d 00 0e 00 0e 00 0e 00 0e 00 0e 00     ................
     6f4:	0e 00 0f 00 0f 00 0f 00 0f 00 0f 00 10 00 10 00     ................
     704:	10 00 10 00 11 00 11 00 11 00 11 00 12 00 12 00     ................
     714:	12 00 12 00 13 00 13 00 13 00 14 00 14 00 15 00     ................
     724:	15 00 15 00 16 00 16 00 17 00 17 00 17 00 18 00     ................
     734:	18 00 19 00 1a 00 1a 00 1b 00 1b 00 1c 00 1c 00     ................
     744:	1d 00 1e 00 1e 00 1f 00 20 00 21 00 21 00 22 00     ........ .!.!.".
     754:	23 00 24 00 25 00 26 00 27 00 28 00 29 00 2a 00     #.$.%.&.'.(.).*.
     764:	2b 00 2c 00 2d 00 2e 00 30 00 31 00 32 00 34 00     +.,.-...0.1.2.4.
     774:	35 00 36 00 38 00 39 00 3b 00 3d 00 3e 00 40 00     5.6.8.9.;.=.>.@.
     784:	42 00 44 00 46 00 48 00 4a 00 4c 00 4e 00 51 00     B.D.F.H.J.L.N.Q.
     794:	53 00 55 00 58 00 5b 00 5d 00 60 00 63 00 66 00     S.U.X.[.].`.c.f.
     7a4:	69 00 6c 00 70 00 73 00 76 00 7a 00 7e 00 82 00     i.l.p.s.v.z.~...
     7b4:	86 00 8a 00 8e 00 93 00 97 00 9c 00 a1 00 a6 00     ................
     7c4:	ab 00 b0 00 b6 00 bc 00 c1 00 c8 00 ce 00 d4 00     ................
     7d4:	db 00 e2 00 e9 00 f1 00 f8 00 00 01 09 01 11 01     ................
     7e4:	1a 01 23 01 2c 01 36 01 40 01 4a 01 55 01 60 01     ..#.,.6.@.J.U.`.
     7f4:	6b 01 77 01 83 01 90 01 9c 01 aa 01 b8 01 c6 01     k.w.............
     804:	d5 01 e4 01 f4 01 04 02 15 02 26 02 38 02 4b 02     ..........&.8.K.
     814:	5e 02 71 02 86 02 9b 02 b1 02 c7 02 df 02 f7 02     ^.q.............
     824:	10 03 29 03 44 03 5f 03 7b 03 99 03 b7 03 d6 03     ..).D._.{.......
     834:	f6 03 18 04 3a 04 5e 04 82 04 a8 04 d0 04 f8 04     ....:.^.........
     844:	22 05 4d 05 7a 05 a8 05 d8 05 09 06 3c 06 71 06     ".M.z.......<.q.
     854:	a7 06 df 06 19 07 55 07 93 07 d3 07 15 08 59 08     ......U.......Y.
     864:	a0 08 e9 08 34 09 82 09 d2 09 25 0a 7b 0a d4 0a     ....4.....%.{...
     874:	2f 0b 8e 0b f0 0b 55 0c bd 0c 29 0d 98 0d 0b 0e     /.....U...).....
     884:	82 0e fd 0e 7c 0f ff 0f                             ....|...

0000088c <playlists>:
     88c:	00 03 06 07 1b 31                                   .....1

00000892 <cron_actions>:
     892:	64 0d d9 0c dd 0c 00 00 4c 0d f5 0c f8 0c 00 00     d.......L.......
     8a2:	02 0e 0f 0d 15 0d 33 0d 51 0e 51 0d 5b 0d 6e 0d     ......3.Q.Q.[.n.

000008b2 <s_playlist_item_0>:
	...

000008b4 <s_playlist_item_1>:
	...

000008b6 <s_playlist_item_2>:
	...

000008b8 <s_playlist_item_3>:
	...

000008ba <s_playlist_item_4>:
     8ba:	0b 54 68 69 73 20 77 6f 72 6b 73 21 00              .This works!.

000008c7 <s_playlist_item_5>:
	...

000008c9 <s_playlist_item_6>:
     8c9:	0b 54 68 69 73 20 77 6f 72 6b 73 21 00              .This works!.

000008d6 <s_playlist_item_7>:
	...

000008d8 <s_playlist_item_8>:
	...

000008da <s_playlist_item_9>:
	...

000008dc <s_playlist_item_10>:
	...

000008de <s_playlist_item_11>:
	...

000008e0 <s_playlist_item_12>:
     8e0:	2f 49 6e 20 74 68 65 20 67 61 6d 65 20 6f 66 20     /In the game of 
     8f0:	6c 69 66 65 20 79 6f 75 20 65 69 74 68 65 72 20     life you either 
     900:	77 69 6e 2c 20 6f 72 20 79 6f 75 20 64 69 65 2e     win, or you die.
	...

00000911 <s_playlist_item_13>:
	...

00000913 <s_playlist_item_14>:
	...

00000915 <s_playlist_item_15>:
	...

00000917 <s_playlist_item_16>:
	...

00000919 <s_playlist_item_17>:
	...

0000091b <s_playlist_item_18>:
	...

0000091d <s_playlist_item_19>:
     91d:	13 57 69 6e 74 65 72 20 69 73 20 63 6f 6d 69 6e     .Winter is comin
     92d:	67 2e 2e 2e 00                                      g....

00000932 <s_playlist_item_20>:
	...

00000934 <s_playlist_item_21>:
	...

00000936 <s_playlist_item_22>:
	...

00000938 <s_playlist_item_23>:
	...

0000093a <s_playlist_item_24>:
	...

0000093c <s_playlist_item_25>:
	...

0000093e <s_playlist_item_26>:
     93e:	55 43 72 65 64 69 74 73 3a 20 62 65 62 72 61 77     UCredits: bebraw
     94e:	2c 20 65 6e 79 6f 6e 65 2c 20 49 63 63 68 61 6e     , enyone, Icchan
     95e:	5e 2c 20 69 6c 65 2d 2c 20 6d 61 72 61 6e 74 2c     ^, ile-, marant,
     96e:	20 6e 61 6d 74 61 62 2c 20 5a 6f 75 70 70 65 6e      namtab, Zouppen
     97e:	2c 20 6b 61 74 69 73 2c 20 4c 61 73 73 65 53 2c     , katis, LasseS,
     98e:	20 54 75 67 67 65 00                                 Tugge.

00000995 <s_playlist_item_27>:
	...

00000997 <s_playlist_item_28>:
     997:	13 45 6c 6f 76 61 6c 6f 20 68 61 73 20 61 72 72     .Elovalo has arr
     9a7:	69 76 65 64 00                                      ived.

000009ac <s_playlist_item_29>:
	...

000009ae <s_playlist_item_30>:
     9ae:	3f 45 6c 6f 76 61 6c 6f 20 69 6e 76 61 73 69 6f     ?Elovalo invasio
     9be:	6e 20 73 70 72 65 61 64 73 20 74 65 72 72 6f 72     n spreads terror
     9ce:	20 61 6e 64 20 63 6f 6e 66 75 73 69 6f 6e 20 61      and confusion a
     9de:	63 72 6f 73 73 20 50 72 6f 74 6f 6d 6f 21 21 21     cross Protomo!!!
	...

000009ef <s_playlist_item_31>:
     9ef:	3c 53 74 65 70 20 63 6c 6f 73 65 72 20 6d 79 20     <Step closer my 
     9ff:	66 72 69 65 6e 64 2c 20 67 69 76 65 20 6d 65 20     friend, give me 
     a0f:	61 20 68 75 67 2e 20 4d 61 6b 65 20 6d 79 20 68     a hug. Make my h
     a1f:	65 61 72 74 20 66 6c 75 74 74 65 72 21 00           eart flutter!.

00000a2d <s_playlist_item_32>:
	...

00000a2f <s_playlist_item_33>:
     a2f:	32 49 6e 20 74 68 65 20 67 61 6d 65 20 6f 66 20     2In the game of 
     a3f:	65 6c 6f 76 61 6c 6f 20 79 6f 75 20 65 69 74 68     elovalo you eith
     a4f:	65 72 20 77 69 6e 2c 20 6f 72 20 79 6f 75 20 64     er win, or you d
     a5f:	69 65 2e 00                                         ie..

00000a63 <s_playlist_item_34>:
	...

00000a65 <s_playlist_item_35>:
	...

00000a67 <s_playlist_item_36>:
     a67:	10 57 68 61 74 20 69 73 20 65 6c 6f 76 61 6c 6f     .What is elovalo
     a77:	3f 00                                               ?.

00000a79 <s_playlist_item_37>:
	...

00000a7b <s_playlist_item_38>:
	...

00000a7d <s_playlist_item_39>:
     a7d:	14 42 61 62 79 20 64 6f 6e 27 74 20 48 65 72 74     .Baby don't Hert
     a8d:	7a 20 6d 65 21 00                                   z me!.

00000a93 <s_playlist_item_40>:
     a93:	13 57 69 6e 74 65 72 20 69 73 20 63 6f 6d 69 6e     .Winter is comin
     aa3:	67 2e 2e 2e 00                                      g....

00000aa8 <s_playlist_item_41>:
	...

00000aaa <s_playlist_item_42>:
     aaa:	5d 43 6f 6d 65 20 6f 6e 2c 20 77 65 27 76 65 20     ]Come on, we've 
     aba:	62 65 65 6e 20 66 72 69 65 6e 64 73 20 66 6f 72     been friends for
     aca:	20 61 20 6c 6f 6e 67 20 74 69 6d 65 20 6e 6f 77      a long time now
     ada:	2e 20 49 20 74 68 69 6e 6b 20 69 74 27 73 20 74     . I think it's t
     aea:	69 6d 65 20 74 6f 20 74 61 6b 65 20 74 68 65 20     ime to take the 
     afa:	6e 65 78 74 20 73 74 65 70 2e 2e 2e 2e 2e 00        next step......

00000b09 <s_playlist_item_43>:
	...

00000b0b <s_playlist_item_44>:
	...

00000b0d <s_playlist_item_45>:
	...

00000b0f <s_playlist_item_46>:
     b0f:	55 43 72 65 64 69 74 73 3a 20 62 65 62 72 61 77     UCredits: bebraw
     b1f:	2c 20 65 6e 79 6f 6e 65 2c 20 49 63 63 68 61 6e     , enyone, Icchan
     b2f:	5e 2c 20 69 6c 65 2d 2c 20 6d 61 72 61 6e 74 2c     ^, ile-, marant,
     b3f:	20 6e 61 6d 74 61 62 2c 20 5a 6f 75 70 70 65 6e      namtab, Zouppen
     b4f:	2c 20 6b 61 74 69 73 2c 20 4c 61 73 73 65 53 2c     , katis, LasseS,
     b5f:	20 54 75 67 67 65 00                                 Tugge.

00000b66 <s_playlist_item_47>:
     b66:	42 48 69 72 65 20 6d 65 20 69 66 20 79 6f 75 20     BHire me if you 
     b76:	77 61 6e 74 20 79 6f 75 72 20 65 78 70 6f 20 62     want your expo b
     b86:	6f 6f 74 68 20 74 6f 20 62 65 20 74 68 65 20 23     ooth to be the #
     b96:	31 20 74 61 6c 6b 20 6f 66 20 74 68 65 20 73 68     1 talk of the sh
     ba6:	6f 77 21 00                                         ow!.

00000baa <s_playlist_item_48>:
     baa:	2a 68 74 74 70 3a 2f 2f 65 6c 6f 76 61 6c 6f 2e     *http://elovalo.
     bba:	6f 72 67 20 2e 20 57 65 20 68 61 76 65 20 63 6f     org . We have co
     bca:	6d 65 20 74 6f 20 73 74 61 79 2e 00                 me to stay..

00000bd6 <s_playlist_item_49>:
	...

00000bd8 <s_playlist_item_50>:
	...

00000bda <s_gradient>:
     bda:	67 72 61 64 69 65 6e 74 00                          gradient.

00000be3 <s_sine>:
     be3:	73 69 6e 65 00                                      sine.

00000be8 <s_stairs_y>:
     be8:	73 74 61 69 72 73 5f 79 00                          stairs_y.

00000bf1 <s_matrix>:
     bf1:	6d 61 74 72 69 78 00                                matrix.

00000bf8 <s_heart>:
     bf8:	68 65 61 72 74 00                                   heart.

00000bfe <s_finite_worm>:
     bfe:	66 69 6e 69 74 65 5f 77 6f 72 6d 00                 finite_worm.

00000c0a <s_all_on>:
     c0a:	61 6c 6c 5f 6f 6e 00                                all_on.

00000c11 <s_clock>:
     c11:	63 6c 6f 63 6b 00                                   clock.

00000c17 <s_tornado>:
     c17:	74 6f 72 6e 61 64 6f 00                             tornado.

00000c1f <s_lines>:
     c1f:	6c 69 6e 65 73 00                                   lines.

00000c25 <s_tube>:
     c25:	74 75 62 65 00                                      tube.

00000c2a <s_rain>:
     c2a:	72 61 69 6e 00                                      rain.

00000c2f <s_stairs_x>:
     c2f:	73 74 61 69 72 73 5f 78 00                          stairs_x.

00000c38 <s_character>:
     c38:	63 68 61 72 61 63 74 65 72 00                       character.

00000c42 <s_wave>:
     c42:	77 61 76 65 00                                      wave.

00000c47 <s_circle>:
     c47:	63 69 72 63 6c 65 00                                circle.

00000c4e <s_template>:
     c4e:	74 65 6d 70 6c 61 74 65 00                          template.

00000c57 <s_layers>:
     c57:	6c 61 79 65 72 73 00                                layers.

00000c5e <s_constant>:
     c5e:	63 6f 6e 73 74 61 6e 74 00                          constant.

00000c67 <s_sphere>:
     c67:	73 70 68 65 72 65 00                                sphere.

00000c6e <s_game_of_life>:
     c6e:	67 61 6d 65 5f 6f 66 5f 6c 69 66 65 00              game_of_life.

00000c7b <s_worm>:
     c7b:	77 6f 72 6d 00                                      worm.

00000c80 <s_cube>:
     c80:	63 75 62 65 00                                      cube.

00000c85 <s_brownian>:
     c85:	62 72 6f 77 6e 69 61 6e 00                          brownian.

00000c8e <s_wireframe>:
     c8e:	77 69 72 65 66 72 61 6d 65 00                       wireframe.

00000c98 <s_countdown>:
     c98:	63 6f 75 6e 74 64 6f 77 6e 00                       countdown.

00000ca2 <s_line>:
     ca2:	6c 69 6e 65 00                                      line.

00000ca7 <s_starfield>:
     ca7:	73 74 61 72 66 69 65 6c 64 00                       starfield.

00000cb1 <s_fish>:
     cb1:	66 69 73 68 00                                      fish.

00000cb6 <s_test_sensor1>:
     cb6:	74 65 73 74 5f 73 65 6e 73 6f 72 31 00              test_sensor1.

00000cc3 <s_particles>:
     cc3:	70 61 72 74 69 63 6c 65 73 00                       particles.

00000ccd <s_scroll_text>:
     ccd:	73 63 72 6f 6c 6c 5f 74 65 78 74 00                 scroll_text.

00000cd9 <key_cube_shutdown>:
     cd9:	6f 66 66 00                                         off.

00000cdd <s_cube_shutdown>:
     cdd:	50 6f 77 65 72 2d 6f 66 66 20 74 68 65 20 63 75     Power-off the cu
     ced:	62 65 20 70 61 72 74 00                             be part.

00000cf5 <key_cube_start>:
     cf5:	6f 6e 00                                            on.

00000cf8 <s_cube_start>:
     cf8:	50 6f 77 65 72 2d 6f 6e 20 74 68 65 20 63 75 62     Power-on the cub
     d08:	65 20 70 61 72 74 00                                e part.

00000d0f <key_serial_hello>:
     d0f:	68 65 6c 6c 6f 00                                   hello.

00000d15 <s_serial_hello>:
     d15:	53 61 79 20 22 68 65 6c 6c 6f 22 20 74 6f 20 73     Say "hello" to s
     d25:	65 72 69 61 6c 20 63 6f 6e 73 6f 6c 65 00           erial console.

00000d33 <s_serial_hello_arg>:
     d33:	4e 75 6d 62 65 72 20 74 6f 20 77 72 69 74 65 20     Number to write 
     d43:	61 66 74 65 72 20 22 68 65 6c 6c 6f 22 00           after "hello".

00000d51 <key_dimming>:
     d51:	69 6e 74 65 6e 73 69 74 79 00                       intensity.

00000d5b <s_dimming>:
     d5b:	53 65 74 20 63 75 62 65 20 69 6e 74 65 6e 73 69     Set cube intensi
     d6b:	74 79 00                                            ty.

00000d6e <s_dimming_arg>:
     d6e:	49 6e 74 65 6e 73 69 74 79 20 62 65 74 77 65 65     Intensity betwee
     d7e:	6e 20 30 20 61 6e 64 20 32 35 35 00                 n 0 and 255.

00000d8a <__ctors_end>:
     d8a:	11 24       	eor	r1, r1
     d8c:	1f be       	out	0x3f, r1	; 63
     d8e:	cf ef       	ldi	r28, 0xFF	; 255
     d90:	d8 e0       	ldi	r29, 0x08	; 8
     d92:	de bf       	out	0x3e, r29	; 62
     d94:	cd bf       	out	0x3d, r28	; 61

00000d96 <__do_copy_data>:
     d96:	11 e0       	ldi	r17, 0x01	; 1
     d98:	a0 e0       	ldi	r26, 0x00	; 0
     d9a:	b1 e0       	ldi	r27, 0x01	; 1
     d9c:	e2 e3       	ldi	r30, 0x32	; 50
     d9e:	f6 e4       	ldi	r31, 0x46	; 70
     da0:	02 c0       	rjmp	.+4      	; 0xda6 <__do_copy_data+0x10>
     da2:	05 90       	lpm	r0, Z+
     da4:	0d 92       	st	X+, r0
     da6:	ae 30       	cpi	r26, 0x0E	; 14
     da8:	b1 07       	cpc	r27, r17
     daa:	d9 f7       	brne	.-10     	; 0xda2 <__do_copy_data+0xc>

00000dac <__do_clear_bss>:
     dac:	17 e0       	ldi	r17, 0x07	; 7
     dae:	ae e0       	ldi	r26, 0x0E	; 14
     db0:	b1 e0       	ldi	r27, 0x01	; 1
     db2:	01 c0       	rjmp	.+2      	; 0xdb6 <.do_clear_bss_start>

00000db4 <.do_clear_bss_loop>:
     db4:	1d 92       	st	X+, r1

00000db6 <.do_clear_bss_start>:
     db6:	a8 3a       	cpi	r26, 0xA8	; 168
     db8:	b1 07       	cpc	r27, r17
     dba:	e1 f7       	brne	.-8      	; 0xdb4 <.do_clear_bss_loop>
     dbc:	0e 94 12 1c 	call	0x3824	; 0x3824 <main>
     dc0:	0c 94 17 23 	jmp	0x462e	; 0x462e <_exit>

00000dc4 <__bad_interrupt>:
     dc4:	0c 94 43 1b 	jmp	0x3686	; 0x3686 <__vector_default>

00000dc8 <init_heart.1440>:
     dc8:	8f ef       	ldi	r24, 0xFF	; 255
     dca:	80 93 2e 04 	sts	0x042E, r24
     dce:	08 95       	ret

00000dd0 <init_template.1442>:
     dd0:	08 95       	ret

00000dd2 <effect_template.1444>:
     dd2:	08 95       	ret

00000dd4 <init_countdown.1446>:
     dd4:	8f e0       	ldi	r24, 0x0F	; 15
     dd6:	80 93 2e 04 	sts	0x042E, r24
     dda:	08 95       	ret

00000ddc <init_rain.1519>:
     ddc:	0e 94 aa 22 	call	0x4554	; 0x4554 <rand>
     de0:	90 93 2f 04 	sts	0x042F, r25
     de4:	80 93 2e 04 	sts	0x042E, r24
     de8:	08 95       	ret

00000dea <render_character>:
     dea:	5f 92       	push	r5
     dec:	8f 92       	push	r8
     dee:	9f 92       	push	r9
     df0:	af 92       	push	r10
     df2:	bf 92       	push	r11
     df4:	cf 92       	push	r12
     df6:	df 92       	push	r13
     df8:	ef 92       	push	r14
     dfa:	ff 92       	push	r15
     dfc:	0f 93       	push	r16
     dfe:	1f 93       	push	r17
     e00:	cf 93       	push	r28
     e02:	df 93       	push	r29
     e04:	cd b7       	in	r28, 0x3d	; 61
     e06:	de b7       	in	r29, 0x3e	; 62
     e08:	2b 97       	sbiw	r28, 0x0b	; 11
     e0a:	0f b6       	in	r0, 0x3f	; 63
     e0c:	f8 94       	cli
     e0e:	de bf       	out	0x3e, r29	; 62
     e10:	0f be       	out	0x3f, r0	; 63
     e12:	cd bf       	out	0x3d, r28	; 61
     e14:	56 2e       	mov	r5, r22
     e16:	5a 87       	std	Y+10, r21	; 0x0a
     e18:	49 87       	std	Y+9, r20	; 0x09
     e1a:	ee 24       	eor	r14, r14
     e1c:	e3 94       	inc	r14
     e1e:	f1 2c       	mov	r15, r1
     e20:	ec 0e       	add	r14, r28
     e22:	fd 1e       	adc	r15, r29
     e24:	87 01       	movw	r16, r14
     e26:	20 e0       	ldi	r18, 0x00	; 0
     e28:	30 e0       	ldi	r19, 0x00	; 0
     e2a:	48 e0       	ldi	r20, 0x08	; 8
     e2c:	84 9f       	mul	r24, r20
     e2e:	c0 01       	movw	r24, r0
     e30:	11 24       	eor	r1, r1
     e32:	fc 01       	movw	r30, r24
     e34:	e2 0f       	add	r30, r18
     e36:	f3 1f       	adc	r31, r19
     e38:	e4 57       	subi	r30, 0x74	; 116
     e3a:	fd 4f       	sbci	r31, 0xFD	; 253
     e3c:	a4 91       	lpm	r26, Z+
     e3e:	f8 01       	movw	r30, r16
     e40:	a1 93       	st	Z+, r26
     e42:	8f 01       	movw	r16, r30
     e44:	2f 5f       	subi	r18, 0xFF	; 255
     e46:	3f 4f       	sbci	r19, 0xFF	; 255
     e48:	28 30       	cpi	r18, 0x08	; 8
     e4a:	31 05       	cpc	r19, r1
     e4c:	91 f7       	brne	.-28     	; 0xe32 <render_character+0x48>
     e4e:	a1 2c       	mov	r10, r1
     e50:	b1 2c       	mov	r11, r1
     e52:	89 e0       	ldi	r24, 0x09	; 9
     e54:	c8 2e       	mov	r12, r24
     e56:	d1 2c       	mov	r13, r1
     e58:	cc 0e       	add	r12, r28
     e5a:	dd 1e       	adc	r13, r29
     e5c:	8a 2c       	mov	r8, r10
     e5e:	2a 2d       	mov	r18, r10
     e60:	25 19       	sub	r18, r5
     e62:	31 e0       	ldi	r19, 0x01	; 1
     e64:	02 2e       	mov	r0, r18
     e66:	01 c0       	rjmp	.+2      	; 0xe6a <render_character+0x80>
     e68:	33 0f       	add	r19, r19
     e6a:	0a 94       	dec	r0
     e6c:	ea f7       	brpl	.-6      	; 0xe68 <render_character+0x7e>
     e6e:	93 2e       	mov	r9, r19
     e70:	87 01       	movw	r16, r14
     e72:	05 c0       	rjmp	.+10     	; 0xe7e <render_character+0x94>
     e74:	0f 5f       	subi	r16, 0xFF	; 255
     e76:	1f 4f       	sbci	r17, 0xFF	; 255
     e78:	0c 15       	cp	r16, r12
     e7a:	1d 05       	cpc	r17, r13
     e7c:	99 f0       	breq	.+38     	; 0xea4 <render_character+0xba>
     e7e:	60 2f       	mov	r22, r16
     e80:	6e 19       	sub	r22, r14
     e82:	28 30       	cpi	r18, 0x08	; 8
     e84:	b8 f7       	brcc	.-18     	; 0xe74 <render_character+0x8a>
     e86:	f8 01       	movw	r30, r16
     e88:	90 81       	ld	r25, Z
     e8a:	99 21       	and	r25, r9
     e8c:	99 f3       	breq	.-26     	; 0xe74 <render_character+0x8a>
     e8e:	88 2d       	mov	r24, r8
     e90:	2b 87       	std	Y+11, r18	; 0x0b
     e92:	e9 85       	ldd	r30, Y+9	; 0x09
     e94:	fa 85       	ldd	r31, Y+10	; 0x0a
     e96:	09 95       	icall
     e98:	2b 85       	ldd	r18, Y+11	; 0x0b
     e9a:	0f 5f       	subi	r16, 0xFF	; 255
     e9c:	1f 4f       	sbci	r17, 0xFF	; 255
     e9e:	0c 15       	cp	r16, r12
     ea0:	1d 05       	cpc	r17, r13
     ea2:	69 f7       	brne	.-38     	; 0xe7e <render_character+0x94>
     ea4:	ff ef       	ldi	r31, 0xFF	; 255
     ea6:	af 1a       	sub	r10, r31
     ea8:	bf 0a       	sbc	r11, r31
     eaa:	48 e0       	ldi	r20, 0x08	; 8
     eac:	a4 16       	cp	r10, r20
     eae:	b1 04       	cpc	r11, r1
     eb0:	a9 f6       	brne	.-86     	; 0xe5c <render_character+0x72>
     eb2:	2b 96       	adiw	r28, 0x0b	; 11
     eb4:	0f b6       	in	r0, 0x3f	; 63
     eb6:	f8 94       	cli
     eb8:	de bf       	out	0x3e, r29	; 62
     eba:	0f be       	out	0x3f, r0	; 63
     ebc:	cd bf       	out	0x3d, r28	; 61
     ebe:	df 91       	pop	r29
     ec0:	cf 91       	pop	r28
     ec2:	1f 91       	pop	r17
     ec4:	0f 91       	pop	r16
     ec6:	ff 90       	pop	r15
     ec8:	ef 90       	pop	r14
     eca:	df 90       	pop	r13
     ecc:	cf 90       	pop	r12
     ece:	bf 90       	pop	r11
     ed0:	af 90       	pop	r10
     ed2:	9f 90       	pop	r9
     ed4:	8f 90       	pop	r8
     ed6:	5f 90       	pop	r5
     ed8:	08 95       	ret

00000eda <effect_character.1513>:
     eda:	4b e4       	ldi	r20, 0x4B	; 75
     edc:	58 e0       	ldi	r21, 0x08	; 8
     ede:	60 e0       	ldi	r22, 0x00	; 0
     ee0:	70 e0       	ldi	r23, 0x00	; 0
     ee2:	83 e6       	ldi	r24, 0x63	; 99
     ee4:	0c 94 f5 06 	jmp	0xdea	; 0xdea <render_character>

00000ee8 <scroll_text>:
     ee8:	8f 92       	push	r8
     eea:	9f 92       	push	r9
     eec:	bf 92       	push	r11
     eee:	cf 92       	push	r12
     ef0:	df 92       	push	r13
     ef2:	ef 92       	push	r14
     ef4:	ff 92       	push	r15
     ef6:	0f 93       	push	r16
     ef8:	1f 93       	push	r17
     efa:	cf 93       	push	r28
     efc:	df 93       	push	r29
     efe:	00 d0       	rcall	.+0      	; 0xf00 <scroll_text+0x18>
     f00:	cd b7       	in	r28, 0x3d	; 61
     f02:	de b7       	in	r29, 0x3e	; 62
     f04:	b6 2e       	mov	r11, r22
     f06:	7c 01       	movw	r14, r24
     f08:	66 23       	and	r22, r22
     f0a:	09 f4       	brne	.+2      	; 0xf0e <scroll_text+0x26>
     f0c:	62 c0       	rjmp	.+196    	; 0xfd2 <scroll_text+0xea>
     f0e:	6f ef       	ldi	r22, 0xFF	; 255
     f10:	e6 1a       	sub	r14, r22
     f12:	f6 0a       	sbc	r15, r22
     f14:	fc 01       	movw	r30, r24
     f16:	c4 90       	lpm	r12, Z+
     f18:	a9 e0       	ldi	r26, 0x09	; 9
     f1a:	b0 e0       	ldi	r27, 0x00	; 0
     f1c:	a4 1b       	sub	r26, r20
     f1e:	b5 0b       	sbc	r27, r21
     f20:	cd 01       	movw	r24, r26
     f22:	b7 fd       	sbrc	r27, 7
     f24:	60 c0       	rjmp	.+192    	; 0xfe6 <scroll_text+0xfe>
     f26:	95 95       	asr	r25
     f28:	87 95       	ror	r24
     f2a:	95 95       	asr	r25
     f2c:	87 95       	ror	r24
     f2e:	95 95       	asr	r25
     f30:	87 95       	ror	r24
     f32:	88 24       	eor	r8, r8
     f34:	99 24       	eor	r9, r9
     f36:	88 1a       	sub	r8, r24
     f38:	99 0a       	sbc	r9, r25
     f3a:	84 01       	movw	r16, r8
     f3c:	00 0f       	add	r16, r16
     f3e:	11 1f       	adc	r17, r17
     f40:	00 0f       	add	r16, r16
     f42:	11 1f       	adc	r17, r17
     f44:	00 0f       	add	r16, r16
     f46:	11 1f       	adc	r17, r17
     f48:	0a 0f       	add	r16, r26
     f4a:	1b 1f       	adc	r17, r27
     f4c:	97 fc       	sbrc	r9, 7
     f4e:	2f c0       	rjmp	.+94     	; 0xfae <scroll_text+0xc6>
     f50:	d1 2c       	mov	r13, r1
     f52:	8c 14       	cp	r8, r12
     f54:	9d 04       	cpc	r9, r13
     f56:	74 f4       	brge	.+28     	; 0xf74 <scroll_text+0x8c>
     f58:	f7 01       	movw	r30, r14
     f5a:	e8 0d       	add	r30, r8
     f5c:	f9 1d       	adc	r31, r9
     f5e:	b1 10       	cpse	r11, r1
     f60:	49 c0       	rjmp	.+146    	; 0xff4 <scroll_text+0x10c>
     f62:	80 81       	ld	r24, Z
     f64:	a9 01       	movw	r20, r18
     f66:	b8 01       	movw	r22, r16
     f68:	29 83       	std	Y+1, r18	; 0x01
     f6a:	3a 83       	std	Y+2, r19	; 0x02
     f6c:	0e 94 f5 06 	call	0xdea	; 0xdea <render_character>
     f70:	29 81       	ldd	r18, Y+1	; 0x01
     f72:	3a 81       	ldd	r19, Y+2	; 0x02
     f74:	f4 01       	movw	r30, r8
     f76:	31 96       	adiw	r30, 0x01	; 1
     f78:	ec 15       	cp	r30, r12
     f7a:	fd 05       	cpc	r31, r13
     f7c:	e4 f4       	brge	.+56     	; 0xfb6 <scroll_text+0xce>
     f7e:	bb 20       	and	r11, r11
     f80:	a1 f1       	breq	.+104    	; 0xfea <scroll_text+0x102>
     f82:	ee 0d       	add	r30, r14
     f84:	ff 1d       	adc	r31, r15
     f86:	84 91       	lpm	r24, Z+
     f88:	b8 01       	movw	r22, r16
     f8a:	68 5f       	subi	r22, 0xF8	; 248
     f8c:	7f 4f       	sbci	r23, 0xFF	; 255
     f8e:	a9 01       	movw	r20, r18
     f90:	0f 90       	pop	r0
     f92:	0f 90       	pop	r0
     f94:	df 91       	pop	r29
     f96:	cf 91       	pop	r28
     f98:	1f 91       	pop	r17
     f9a:	0f 91       	pop	r16
     f9c:	ff 90       	pop	r15
     f9e:	ef 90       	pop	r14
     fa0:	df 90       	pop	r13
     fa2:	cf 90       	pop	r12
     fa4:	bf 90       	pop	r11
     fa6:	9f 90       	pop	r9
     fa8:	8f 90       	pop	r8
     faa:	0c 94 f5 06 	jmp	0xdea	; 0xdea <render_character>
     fae:	ff ef       	ldi	r31, 0xFF	; 255
     fb0:	8f 16       	cp	r8, r31
     fb2:	9f 06       	cpc	r9, r31
     fb4:	09 f1       	breq	.+66     	; 0xff8 <scroll_text+0x110>
     fb6:	0f 90       	pop	r0
     fb8:	0f 90       	pop	r0
     fba:	df 91       	pop	r29
     fbc:	cf 91       	pop	r28
     fbe:	1f 91       	pop	r17
     fc0:	0f 91       	pop	r16
     fc2:	ff 90       	pop	r15
     fc4:	ef 90       	pop	r14
     fc6:	df 90       	pop	r13
     fc8:	cf 90       	pop	r12
     fca:	bf 90       	pop	r11
     fcc:	9f 90       	pop	r9
     fce:	8f 90       	pop	r8
     fd0:	08 95       	ret
     fd2:	fc 01       	movw	r30, r24
     fd4:	c1 90       	ld	r12, Z+
     fd6:	7f 01       	movw	r14, r30
     fd8:	a9 e0       	ldi	r26, 0x09	; 9
     fda:	b0 e0       	ldi	r27, 0x00	; 0
     fdc:	a4 1b       	sub	r26, r20
     fde:	b5 0b       	sbc	r27, r21
     fe0:	cd 01       	movw	r24, r26
     fe2:	b7 ff       	sbrs	r27, 7
     fe4:	a0 cf       	rjmp	.-192    	; 0xf26 <scroll_text+0x3e>
     fe6:	07 96       	adiw	r24, 0x07	; 7
     fe8:	9e cf       	rjmp	.-196    	; 0xf26 <scroll_text+0x3e>
     fea:	f4 01       	movw	r30, r8
     fec:	ee 0d       	add	r30, r14
     fee:	ff 1d       	adc	r31, r15
     ff0:	81 81       	ldd	r24, Z+1	; 0x01
     ff2:	ca cf       	rjmp	.-108    	; 0xf88 <scroll_text+0xa0>
     ff4:	84 91       	lpm	r24, Z+
     ff6:	b6 cf       	rjmp	.-148    	; 0xf64 <scroll_text+0x7c>
     ff8:	d1 2c       	mov	r13, r1
     ffa:	bc cf       	rjmp	.-136    	; 0xf74 <scroll_text+0x8c>

00000ffc <set_led_8_8_12>:
     ffc:	70 e0       	ldi	r23, 0x00	; 0
     ffe:	66 0f       	add	r22, r22
    1000:	77 1f       	adc	r23, r23
    1002:	66 0f       	add	r22, r22
    1004:	77 1f       	adc	r23, r23
    1006:	66 0f       	add	r22, r22
    1008:	77 1f       	adc	r23, r23
    100a:	68 2b       	or	r22, r24
    100c:	80 e4       	ldi	r24, 0x40	; 64
    100e:	48 9f       	mul	r20, r24
    1010:	a0 01       	movw	r20, r0
    1012:	11 24       	eor	r1, r1
    1014:	64 2b       	or	r22, r20
    1016:	75 2b       	or	r23, r21
    1018:	cb 01       	movw	r24, r22
    101a:	88 0f       	add	r24, r24
    101c:	99 1f       	adc	r25, r25
    101e:	86 0f       	add	r24, r22
    1020:	97 1f       	adc	r25, r23
    1022:	88 0f       	add	r24, r24
    1024:	99 1f       	adc	r25, r25
    1026:	88 0f       	add	r24, r24
    1028:	99 1f       	adc	r25, r25
    102a:	fc 01       	movw	r30, r24
    102c:	f6 95       	lsr	r31
    102e:	e7 95       	ror	r30
    1030:	f6 95       	lsr	r31
    1032:	e7 95       	ror	r30
    1034:	f6 95       	lsr	r31
    1036:	e7 95       	ror	r30
    1038:	40 91 06 01 	lds	r20, 0x0106
    103c:	50 91 07 01 	lds	r21, 0x0107
    1040:	da 01       	movw	r26, r20
    1042:	ae 0f       	add	r26, r30
    1044:	bf 1f       	adc	r27, r31
    1046:	31 96       	adiw	r30, 0x01	; 1
    1048:	e4 0f       	add	r30, r20
    104a:	f5 1f       	adc	r31, r21
    104c:	90 81       	ld	r25, Z
    104e:	5c 91       	ld	r21, X
    1050:	40 e0       	ldi	r20, 0x00	; 0
    1052:	49 2b       	or	r20, r25
    1054:	82 fd       	sbrc	r24, 2
    1056:	0e c0       	rjmp	.+28     	; 0x1074 <set_led_8_8_12+0x78>
    1058:	ca 01       	movw	r24, r20
    105a:	8f 70       	andi	r24, 0x0F	; 15
    105c:	99 27       	eor	r25, r25
    105e:	22 95       	swap	r18
    1060:	32 95       	swap	r19
    1062:	30 7f       	andi	r19, 0xF0	; 240
    1064:	32 27       	eor	r19, r18
    1066:	20 7f       	andi	r18, 0xF0	; 240
    1068:	32 27       	eor	r19, r18
    106a:	82 2b       	or	r24, r18
    106c:	93 2b       	or	r25, r19
    106e:	9c 93       	st	X, r25
    1070:	80 83       	st	Z, r24
    1072:	08 95       	ret
    1074:	ca 01       	movw	r24, r20
    1076:	88 27       	eor	r24, r24
    1078:	90 7f       	andi	r25, 0xF0	; 240
    107a:	82 2b       	or	r24, r18
    107c:	93 2b       	or	r25, r19
    107e:	9c 93       	st	X, r25
    1080:	80 83       	st	Z, r24
    1082:	08 95       	ret

00001084 <render_xy>:
    1084:	46 2f       	mov	r20, r22
    1086:	2f ef       	ldi	r18, 0xFF	; 255
    1088:	3f e0       	ldi	r19, 0x0F	; 15
    108a:	67 e0       	ldi	r22, 0x07	; 7
    108c:	97 e0       	ldi	r25, 0x07	; 7
    108e:	98 1b       	sub	r25, r24
    1090:	89 2f       	mov	r24, r25
    1092:	0c 94 fe 07 	jmp	0xffc	; 0xffc <set_led_8_8_12>

00001096 <render_yz>:
    1096:	46 2f       	mov	r20, r22
    1098:	2f ef       	ldi	r18, 0xFF	; 255
    109a:	3f e0       	ldi	r19, 0x0F	; 15
    109c:	68 2f       	mov	r22, r24
    109e:	87 e0       	ldi	r24, 0x07	; 7
    10a0:	0c 94 fe 07 	jmp	0xffc	; 0xffc <set_led_8_8_12>

000010a4 <effect_all_on_kernel.1418>:
    10a4:	2f ef       	ldi	r18, 0xFF	; 255
    10a6:	3f e0       	ldi	r19, 0x0F	; 15
    10a8:	0c 94 fe 07 	jmp	0xffc	; 0xffc <set_led_8_8_12>

000010ac <effect_constant_kernel.1428>:
    10ac:	2f ef       	ldi	r18, 0xFF	; 255
    10ae:	3f e0       	ldi	r19, 0x0F	; 15
    10b0:	43 e0       	ldi	r20, 0x03	; 3
    10b2:	0c 94 fe 07 	jmp	0xffc	; 0xffc <set_led_8_8_12>

000010b6 <set_z>:
    10b6:	ff 92       	push	r15
    10b8:	0f 93       	push	r16
    10ba:	1f 93       	push	r17
    10bc:	cf 93       	push	r28
    10be:	df 93       	push	r29
    10c0:	18 2f       	mov	r17, r24
    10c2:	06 2f       	mov	r16, r22
    10c4:	f5 2e       	mov	r15, r21
    10c6:	f2 94       	swap	r15
    10c8:	cf e0       	ldi	r28, 0x0F	; 15
    10ca:	fc 22       	and	r15, r28
    10cc:	ea 01       	movw	r28, r20
    10ce:	df 70       	andi	r29, 0x0F	; 15
    10d0:	2f ef       	ldi	r18, 0xFF	; 255
    10d2:	3f e0       	ldi	r19, 0x0F	; 15
    10d4:	2c 1b       	sub	r18, r28
    10d6:	3d 0b       	sbc	r19, r29
    10d8:	4f 2d       	mov	r20, r15
    10da:	0e 94 fe 07 	call	0xffc	; 0xffc <set_led_8_8_12>
    10de:	4f 2d       	mov	r20, r15
    10e0:	4f 5f       	subi	r20, 0xFF	; 255
    10e2:	9e 01       	movw	r18, r28
    10e4:	60 2f       	mov	r22, r16
    10e6:	81 2f       	mov	r24, r17
    10e8:	df 91       	pop	r29
    10ea:	cf 91       	pop	r28
    10ec:	1f 91       	pop	r17
    10ee:	0f 91       	pop	r16
    10f0:	ff 90       	pop	r15
    10f2:	0c 94 fe 07 	jmp	0xffc	; 0xffc <set_led_8_8_12>

000010f6 <effect_sine_kernel.1436>:
    10f6:	8f 92       	push	r8
    10f8:	9f 92       	push	r9
    10fa:	af 92       	push	r10
    10fc:	bf 92       	push	r11
    10fe:	cf 92       	push	r12
    1100:	df 92       	push	r13
    1102:	ef 92       	push	r14
    1104:	ff 92       	push	r15
    1106:	0f 93       	push	r16
    1108:	1f 93       	push	r17
    110a:	cf 93       	push	r28
    110c:	df 93       	push	r29
    110e:	00 d0       	rcall	.+0      	; 0x1110 <effect_sine_kernel.1436+0x1a>
    1110:	00 d0       	rcall	.+0      	; 0x1112 <effect_sine_kernel.1436+0x1c>
    1112:	cd b7       	in	r28, 0x3d	; 61
    1114:	de b7       	in	r29, 0x3e	; 62
    1116:	18 2f       	mov	r17, r24
    1118:	06 2f       	mov	r16, r22
    111a:	60 91 25 01 	lds	r22, 0x0125
    111e:	70 91 26 01 	lds	r23, 0x0126
    1122:	80 e0       	ldi	r24, 0x00	; 0
    1124:	90 e0       	ldi	r25, 0x00	; 0
    1126:	0e 94 4c 20 	call	0x4098	; 0x4098 <__floatunsisf>
    112a:	6b 01       	movw	r12, r22
    112c:	7c 01       	movw	r14, r24
    112e:	61 2f       	mov	r22, r17
    1130:	70 e0       	ldi	r23, 0x00	; 0
    1132:	80 e0       	ldi	r24, 0x00	; 0
    1134:	90 e0       	ldi	r25, 0x00	; 0
    1136:	0e 94 4c 20 	call	0x4098	; 0x4098 <__floatunsisf>
    113a:	20 e0       	ldi	r18, 0x00	; 0
    113c:	30 e0       	ldi	r19, 0x00	; 0
    113e:	40 e0       	ldi	r20, 0x00	; 0
    1140:	5f e3       	ldi	r21, 0x3F	; 63
    1142:	0e 94 02 21 	call	0x4204	; 0x4204 <__mulsf3>
    1146:	4b 01       	movw	r8, r22
    1148:	5c 01       	movw	r10, r24
    114a:	20 e0       	ldi	r18, 0x00	; 0
    114c:	30 e0       	ldi	r19, 0x00	; 0
    114e:	48 ec       	ldi	r20, 0xC8	; 200
    1150:	51 e4       	ldi	r21, 0x41	; 65
    1152:	c7 01       	movw	r24, r14
    1154:	b6 01       	movw	r22, r12
    1156:	0e 94 b8 1f 	call	0x3f70	; 0x3f70 <__divsf3>
    115a:	9b 01       	movw	r18, r22
    115c:	ac 01       	movw	r20, r24
    115e:	c5 01       	movw	r24, r10
    1160:	b4 01       	movw	r22, r8
    1162:	0e 94 50 1f 	call	0x3ea0	; 0x3ea0 <__addsf3>
    1166:	0e 94 65 21 	call	0x42ca	; 0x42ca <sin>
    116a:	4b 01       	movw	r8, r22
    116c:	5c 01       	movw	r10, r24
    116e:	60 2f       	mov	r22, r16
    1170:	70 e0       	ldi	r23, 0x00	; 0
    1172:	80 e0       	ldi	r24, 0x00	; 0
    1174:	90 e0       	ldi	r25, 0x00	; 0
    1176:	0e 94 4c 20 	call	0x4098	; 0x4098 <__floatunsisf>
    117a:	20 e0       	ldi	r18, 0x00	; 0
    117c:	30 e0       	ldi	r19, 0x00	; 0
    117e:	40 e0       	ldi	r20, 0x00	; 0
    1180:	5f e3       	ldi	r21, 0x3F	; 63
    1182:	0e 94 02 21 	call	0x4204	; 0x4204 <__mulsf3>
    1186:	69 83       	std	Y+1, r22	; 0x01
    1188:	7a 83       	std	Y+2, r23	; 0x02
    118a:	8b 83       	std	Y+3, r24	; 0x03
    118c:	9c 83       	std	Y+4, r25	; 0x04
    118e:	20 e0       	ldi	r18, 0x00	; 0
    1190:	30 e0       	ldi	r19, 0x00	; 0
    1192:	48 e4       	ldi	r20, 0x48	; 72
    1194:	52 e4       	ldi	r21, 0x42	; 66
    1196:	c7 01       	movw	r24, r14
    1198:	b6 01       	movw	r22, r12
    119a:	0e 94 b8 1f 	call	0x3f70	; 0x3f70 <__divsf3>
    119e:	9b 01       	movw	r18, r22
    11a0:	ac 01       	movw	r20, r24
    11a2:	69 81       	ldd	r22, Y+1	; 0x01
    11a4:	7a 81       	ldd	r23, Y+2	; 0x02
    11a6:	8b 81       	ldd	r24, Y+3	; 0x03
    11a8:	9c 81       	ldd	r25, Y+4	; 0x04
    11aa:	0e 94 50 1f 	call	0x3ea0	; 0x3ea0 <__addsf3>
    11ae:	0e 94 65 21 	call	0x42ca	; 0x42ca <sin>
    11b2:	6b 01       	movw	r12, r22
    11b4:	7c 01       	movw	r14, r24
    11b6:	20 e0       	ldi	r18, 0x00	; 0
    11b8:	30 e0       	ldi	r19, 0x00	; 0
    11ba:	40 e0       	ldi	r20, 0x00	; 0
    11bc:	50 e4       	ldi	r21, 0x40	; 64
    11be:	c5 01       	movw	r24, r10
    11c0:	b4 01       	movw	r22, r8
    11c2:	0e 94 50 1f 	call	0x3ea0	; 0x3ea0 <__addsf3>
    11c6:	a7 01       	movw	r20, r14
    11c8:	96 01       	movw	r18, r12
    11ca:	0e 94 50 1f 	call	0x3ea0	; 0x3ea0 <__addsf3>
    11ce:	20 e0       	ldi	r18, 0x00	; 0
    11d0:	3e ef       	ldi	r19, 0xFE	; 254
    11d2:	4f ed       	ldi	r20, 0xDF	; 223
    11d4:	55 e4       	ldi	r21, 0x45	; 69
    11d6:	0e 94 02 21 	call	0x4204	; 0x4204 <__mulsf3>
    11da:	0e 94 20 20 	call	0x4040	; 0x4040 <__fixunssfsi>
    11de:	ab 01       	movw	r20, r22
    11e0:	60 2f       	mov	r22, r16
    11e2:	81 2f       	mov	r24, r17
    11e4:	0f 90       	pop	r0
    11e6:	0f 90       	pop	r0
    11e8:	0f 90       	pop	r0
    11ea:	0f 90       	pop	r0
    11ec:	df 91       	pop	r29
    11ee:	cf 91       	pop	r28
    11f0:	1f 91       	pop	r17
    11f2:	0f 91       	pop	r16
    11f4:	ff 90       	pop	r15
    11f6:	ef 90       	pop	r14
    11f8:	df 90       	pop	r13
    11fa:	cf 90       	pop	r12
    11fc:	bf 90       	pop	r11
    11fe:	af 90       	pop	r10
    1200:	9f 90       	pop	r9
    1202:	8f 90       	pop	r8
    1204:	0c 94 5b 08 	jmp	0x10b6	; 0x10b6 <set_z>

00001208 <effect_wave_kernel.1432>:
    1208:	8f 92       	push	r8
    120a:	9f 92       	push	r9
    120c:	af 92       	push	r10
    120e:	bf 92       	push	r11
    1210:	cf 92       	push	r12
    1212:	df 92       	push	r13
    1214:	ef 92       	push	r14
    1216:	ff 92       	push	r15
    1218:	0f 93       	push	r16
    121a:	1f 93       	push	r17
    121c:	cf 93       	push	r28
    121e:	df 93       	push	r29
    1220:	c8 2f       	mov	r28, r24
    1222:	d6 2f       	mov	r29, r22
    1224:	0e e2       	ldi	r16, 0x2E	; 46
    1226:	14 e0       	ldi	r17, 0x04	; 4
    1228:	26 e6       	ldi	r18, 0x66	; 102
    122a:	36 e6       	ldi	r19, 0x66	; 102
    122c:	46 e6       	ldi	r20, 0x66	; 102
    122e:	5f e3       	ldi	r21, 0x3F	; 63
    1230:	f8 01       	movw	r30, r16
    1232:	60 81       	ld	r22, Z
    1234:	71 81       	ldd	r23, Z+1	; 0x01
    1236:	82 81       	ldd	r24, Z+2	; 0x02
    1238:	93 81       	ldd	r25, Z+3	; 0x03
    123a:	0e 94 02 21 	call	0x4204	; 0x4204 <__mulsf3>
    123e:	6b 01       	movw	r12, r22
    1240:	7c 01       	movw	r14, r24
    1242:	60 91 02 01 	lds	r22, 0x0102
    1246:	70 e0       	ldi	r23, 0x00	; 0
    1248:	80 e0       	ldi	r24, 0x00	; 0
    124a:	90 e0       	ldi	r25, 0x00	; 0
    124c:	0e 94 4c 20 	call	0x4098	; 0x4098 <__floatunsisf>
    1250:	2d ec       	ldi	r18, 0xCD	; 205
    1252:	3c ec       	ldi	r19, 0xCC	; 204
    1254:	4c ec       	ldi	r20, 0xCC	; 204
    1256:	5d e3       	ldi	r21, 0x3D	; 61
    1258:	0e 94 02 21 	call	0x4204	; 0x4204 <__mulsf3>
    125c:	9b 01       	movw	r18, r22
    125e:	ac 01       	movw	r20, r24
    1260:	c7 01       	movw	r24, r14
    1262:	b6 01       	movw	r22, r12
    1264:	0e 94 50 1f 	call	0x3ea0	; 0x3ea0 <__addsf3>
    1268:	6b 01       	movw	r12, r22
    126a:	7c 01       	movw	r14, r24
    126c:	98 2f       	mov	r25, r24
    126e:	4c 2d       	mov	r20, r12
    1270:	5d 2d       	mov	r21, r13
    1272:	69 2f       	mov	r22, r25
    1274:	7f 2d       	mov	r23, r15
    1276:	f8 01       	movw	r30, r16
    1278:	40 83       	st	Z, r20
    127a:	51 83       	std	Z+1, r21	; 0x01
    127c:	62 83       	std	Z+2, r22	; 0x02
    127e:	73 83       	std	Z+3, r23	; 0x03
    1280:	6c 2f       	mov	r22, r28
    1282:	70 e0       	ldi	r23, 0x00	; 0
    1284:	80 e0       	ldi	r24, 0x00	; 0
    1286:	90 e0       	ldi	r25, 0x00	; 0
    1288:	0e 94 4c 20 	call	0x4098	; 0x4098 <__floatunsisf>
    128c:	20 e0       	ldi	r18, 0x00	; 0
    128e:	30 e0       	ldi	r19, 0x00	; 0
    1290:	48 e4       	ldi	r20, 0x48	; 72
    1292:	52 e4       	ldi	r21, 0x42	; 66
    1294:	0e 94 02 21 	call	0x4204	; 0x4204 <__mulsf3>
    1298:	4b 01       	movw	r8, r22
    129a:	5c 01       	movw	r10, r24
    129c:	60 91 25 01 	lds	r22, 0x0125
    12a0:	70 91 26 01 	lds	r23, 0x0126
    12a4:	80 e0       	ldi	r24, 0x00	; 0
    12a6:	90 e0       	ldi	r25, 0x00	; 0
    12a8:	0e 94 4c 20 	call	0x4098	; 0x4098 <__floatunsisf>
    12ac:	20 e0       	ldi	r18, 0x00	; 0
    12ae:	30 e0       	ldi	r19, 0x00	; 0
    12b0:	40 e7       	ldi	r20, 0x70	; 112
    12b2:	51 e4       	ldi	r21, 0x41	; 65
    12b4:	0e 94 b8 1f 	call	0x3f70	; 0x3f70 <__divsf3>
    12b8:	9b 01       	movw	r18, r22
    12ba:	ac 01       	movw	r20, r24
    12bc:	c5 01       	movw	r24, r10
    12be:	b4 01       	movw	r22, r8
    12c0:	0e 94 50 1f 	call	0x3ea0	; 0x3ea0 <__addsf3>
    12c4:	4b 01       	movw	r8, r22
    12c6:	5c 01       	movw	r10, r24
    12c8:	20 e0       	ldi	r18, 0x00	; 0
    12ca:	30 e0       	ldi	r19, 0x00	; 0
    12cc:	40 e2       	ldi	r20, 0x20	; 32
    12ce:	51 e4       	ldi	r21, 0x41	; 65
    12d0:	6c 2d       	mov	r22, r12
    12d2:	7d 2d       	mov	r23, r13
    12d4:	8e 2d       	mov	r24, r14
    12d6:	9f 2d       	mov	r25, r15
    12d8:	0e 94 b8 1f 	call	0x3f70	; 0x3f70 <__divsf3>
    12dc:	9b 01       	movw	r18, r22
    12de:	ac 01       	movw	r20, r24
    12e0:	c5 01       	movw	r24, r10
    12e2:	b4 01       	movw	r22, r8
    12e4:	0e 94 50 1f 	call	0x3ea0	; 0x3ea0 <__addsf3>
    12e8:	0e 94 65 21 	call	0x42ca	; 0x42ca <sin>
    12ec:	20 e0       	ldi	r18, 0x00	; 0
    12ee:	30 e0       	ldi	r19, 0x00	; 0
    12f0:	40 e0       	ldi	r20, 0x00	; 0
    12f2:	50 e4       	ldi	r21, 0x40	; 64
    12f4:	0e 94 50 1f 	call	0x3ea0	; 0x3ea0 <__addsf3>
    12f8:	20 e0       	ldi	r18, 0x00	; 0
    12fa:	3e ef       	ldi	r19, 0xFE	; 254
    12fc:	4f ed       	ldi	r20, 0xDF	; 223
    12fe:	55 e4       	ldi	r21, 0x45	; 69
    1300:	0e 94 02 21 	call	0x4204	; 0x4204 <__mulsf3>
    1304:	0e 94 20 20 	call	0x4040	; 0x4040 <__fixunssfsi>
    1308:	ab 01       	movw	r20, r22
    130a:	6d 2f       	mov	r22, r29
    130c:	8c 2f       	mov	r24, r28
    130e:	df 91       	pop	r29
    1310:	cf 91       	pop	r28
    1312:	1f 91       	pop	r17
    1314:	0f 91       	pop	r16
    1316:	ff 90       	pop	r15
    1318:	ef 90       	pop	r14
    131a:	df 90       	pop	r13
    131c:	cf 90       	pop	r12
    131e:	bf 90       	pop	r11
    1320:	af 90       	pop	r10
    1322:	9f 90       	pop	r9
    1324:	8f 90       	pop	r8
    1326:	0c 94 5b 08 	jmp	0x10b6	; 0x10b6 <set_z>

0000132a <set_row>:
    132a:	ef 92       	push	r14
    132c:	ff 92       	push	r15
    132e:	0f 93       	push	r16
    1330:	1f 93       	push	r17
    1332:	cf 93       	push	r28
    1334:	df 93       	push	r29
    1336:	f8 2e       	mov	r15, r24
    1338:	e6 2e       	mov	r14, r22
    133a:	d2 2f       	mov	r29, r18
    133c:	24 17       	cp	r18, r20
    133e:	50 f0       	brcs	.+20     	; 0x1354 <set_row+0x2a>
    1340:	c4 2f       	mov	r28, r20
    1342:	98 01       	movw	r18, r16
    1344:	4e 2d       	mov	r20, r14
    1346:	6c 2f       	mov	r22, r28
    1348:	8f 2d       	mov	r24, r15
    134a:	0e 94 fe 07 	call	0xffc	; 0xffc <set_led_8_8_12>
    134e:	cf 5f       	subi	r28, 0xFF	; 255
    1350:	dc 17       	cp	r29, r28
    1352:	b8 f7       	brcc	.-18     	; 0x1342 <set_row+0x18>
    1354:	df 91       	pop	r29
    1356:	cf 91       	pop	r28
    1358:	1f 91       	pop	r17
    135a:	0f 91       	pop	r16
    135c:	ff 90       	pop	r15
    135e:	ef 90       	pop	r14
    1360:	08 95       	ret

00001362 <iterate_xy>:
    1362:	0f 93       	push	r16
    1364:	1f 93       	push	r17
    1366:	cf 93       	push	r28
    1368:	df 93       	push	r29
    136a:	ec 01       	movw	r28, r24
    136c:	00 e0       	ldi	r16, 0x00	; 0
    136e:	10 e0       	ldi	r17, 0x00	; 0
    1370:	61 2f       	mov	r22, r17
    1372:	80 2f       	mov	r24, r16
    1374:	fe 01       	movw	r30, r28
    1376:	09 95       	icall
    1378:	1f 5f       	subi	r17, 0xFF	; 255
    137a:	18 30       	cpi	r17, 0x08	; 8
    137c:	c9 f7       	brne	.-14     	; 0x1370 <iterate_xy+0xe>
    137e:	0f 5f       	subi	r16, 0xFF	; 255
    1380:	08 30       	cpi	r16, 0x08	; 8
    1382:	a9 f7       	brne	.-22     	; 0x136e <iterate_xy+0xc>
    1384:	df 91       	pop	r29
    1386:	cf 91       	pop	r28
    1388:	1f 91       	pop	r17
    138a:	0f 91       	pop	r16
    138c:	08 95       	ret

0000138e <iterate_xyz>:
    138e:	ff 92       	push	r15
    1390:	0f 93       	push	r16
    1392:	1f 93       	push	r17
    1394:	cf 93       	push	r28
    1396:	df 93       	push	r29
    1398:	ec 01       	movw	r28, r24
    139a:	f1 2c       	mov	r15, r1
    139c:	00 e0       	ldi	r16, 0x00	; 0
    139e:	10 e0       	ldi	r17, 0x00	; 0
    13a0:	41 2f       	mov	r20, r17
    13a2:	60 2f       	mov	r22, r16
    13a4:	8f 2d       	mov	r24, r15
    13a6:	fe 01       	movw	r30, r28
    13a8:	09 95       	icall
    13aa:	1f 5f       	subi	r17, 0xFF	; 255
    13ac:	18 30       	cpi	r17, 0x08	; 8
    13ae:	c1 f7       	brne	.-16     	; 0x13a0 <iterate_xyz+0x12>
    13b0:	0f 5f       	subi	r16, 0xFF	; 255
    13b2:	08 30       	cpi	r16, 0x08	; 8
    13b4:	a1 f7       	brne	.-24     	; 0x139e <iterate_xyz+0x10>
    13b6:	f3 94       	inc	r15
    13b8:	f8 e0       	ldi	r31, 0x08	; 8
    13ba:	ff 12       	cpse	r15, r31
    13bc:	ef cf       	rjmp	.-34     	; 0x139c <iterate_xyz+0xe>
    13be:	df 91       	pop	r29
    13c0:	cf 91       	pop	r28
    13c2:	1f 91       	pop	r17
    13c4:	0f 91       	pop	r16
    13c6:	ff 90       	pop	r15
    13c8:	08 95       	ret

000013ca <clear_buffer>:
    13ca:	a6 e0       	ldi	r26, 0x06	; 6
    13cc:	b1 e0       	ldi	r27, 0x01	; 1
    13ce:	ec 91       	ld	r30, X
    13d0:	11 96       	adiw	r26, 0x01	; 1
    13d2:	fc 91       	ld	r31, X
    13d4:	80 e0       	ldi	r24, 0x00	; 0
    13d6:	93 e0       	ldi	r25, 0x03	; 3
    13d8:	df 01       	movw	r26, r30
    13da:	9c 01       	movw	r18, r24
    13dc:	1d 92       	st	X+, r1
    13de:	21 50       	subi	r18, 0x01	; 1
    13e0:	30 40       	sbci	r19, 0x00	; 0
    13e2:	e1 f7       	brne	.-8      	; 0x13dc <clear_buffer+0x12>
    13e4:	08 95       	ret

000013e6 <init_finite_worm.1525>:
    13e6:	84 e0       	ldi	r24, 0x04	; 4
    13e8:	90 e0       	ldi	r25, 0x00	; 0
    13ea:	90 93 2f 04 	sts	0x042F, r25
    13ee:	80 93 2e 04 	sts	0x042E, r24
    13f2:	90 93 31 04 	sts	0x0431, r25
    13f6:	80 93 30 04 	sts	0x0430, r24
    13fa:	90 93 33 04 	sts	0x0433, r25
    13fe:	80 93 32 04 	sts	0x0432, r24
    1402:	10 92 35 04 	sts	0x0435, r1
    1406:	10 92 34 04 	sts	0x0434, r1
    140a:	81 e0       	ldi	r24, 0x01	; 1
    140c:	80 93 36 04 	sts	0x0436, r24
    1410:	4a e0       	ldi	r20, 0x0A	; 10
    1412:	50 e0       	ldi	r21, 0x00	; 0
    1414:	6a e0       	ldi	r22, 0x0A	; 10
    1416:	70 e0       	ldi	r23, 0x00	; 0
    1418:	87 e3       	ldi	r24, 0x37	; 55
    141a:	94 e0       	ldi	r25, 0x04	; 4
    141c:	0e 94 ba 22 	call	0x4574	; 0x4574 <memset>
    1420:	10 92 55 04 	sts	0x0455, r1
    1424:	0c 94 e5 09 	jmp	0x13ca	; 0x13ca <clear_buffer>

00001428 <effect_gradient.1517>:
    1428:	cf 92       	push	r12
    142a:	df 92       	push	r13
    142c:	ef 92       	push	r14
    142e:	ff 92       	push	r15
    1430:	0f 93       	push	r16
    1432:	1f 93       	push	r17
    1434:	cf 93       	push	r28
    1436:	df 93       	push	r29
    1438:	c0 90 25 01 	lds	r12, 0x0125
    143c:	d0 90 26 01 	lds	r13, 0x0126
    1440:	d6 94       	lsr	r13
    1442:	c7 94       	ror	r12
    1444:	d2 94       	swap	r13
    1446:	c2 94       	swap	r12
    1448:	df e0       	ldi	r29, 0x0F	; 15
    144a:	cd 22       	and	r12, r29
    144c:	cd 24       	eor	r12, r13
    144e:	dd 22       	and	r13, r29
    1450:	cd 24       	eor	r12, r13
    1452:	87 e0       	ldi	r24, 0x07	; 7
    1454:	c8 22       	and	r12, r24
    1456:	dd 24       	eor	r13, r13
    1458:	0e 94 e5 09 	call	0x13ca	; 0x13ca <clear_buffer>
    145c:	c0 e0       	ldi	r28, 0x00	; 0
    145e:	d7 e0       	ldi	r29, 0x07	; 7
    1460:	e1 2c       	mov	r14, r1
    1462:	f1 2c       	mov	r15, r1
    1464:	27 c0       	rjmp	.+78     	; 0x14b4 <effect_gradient.1517+0x8c>
    1466:	b6 01       	movw	r22, r12
    1468:	6e 19       	sub	r22, r14
    146a:	7f 09       	sbc	r23, r15
    146c:	88 27       	eor	r24, r24
    146e:	77 fd       	sbrc	r23, 7
    1470:	80 95       	com	r24
    1472:	98 2f       	mov	r25, r24
    1474:	0e 94 4e 20 	call	0x409c	; 0x409c <__floatsisf>
    1478:	2d ec       	ldi	r18, 0xCD	; 205
    147a:	3c ec       	ldi	r19, 0xCC	; 204
    147c:	4c ec       	ldi	r20, 0xCC	; 204
    147e:	5d e3       	ldi	r21, 0x3D	; 61
    1480:	0e 94 02 21 	call	0x4204	; 0x4204 <__mulsf3>
    1484:	20 e0       	ldi	r18, 0x00	; 0
    1486:	30 ef       	ldi	r19, 0xF0	; 240
    1488:	4f e7       	ldi	r20, 0x7F	; 127
    148a:	55 e4       	ldi	r21, 0x45	; 69
    148c:	0e 94 02 21 	call	0x4204	; 0x4204 <__mulsf3>
    1490:	0e 94 20 20 	call	0x4040	; 0x4040 <__fixunssfsi>
    1494:	3d 2f       	mov	r19, r29
    1496:	3e 19       	sub	r19, r14
    1498:	8b 01       	movw	r16, r22
    149a:	27 e0       	ldi	r18, 0x07	; 7
    149c:	40 e0       	ldi	r20, 0x00	; 0
    149e:	63 2f       	mov	r22, r19
    14a0:	8c 2f       	mov	r24, r28
    14a2:	0e 94 95 09 	call	0x132a	; 0x132a <set_row>
    14a6:	8f ef       	ldi	r24, 0xFF	; 255
    14a8:	e8 1a       	sub	r14, r24
    14aa:	f8 0a       	sbc	r15, r24
    14ac:	88 e0       	ldi	r24, 0x08	; 8
    14ae:	e8 16       	cp	r14, r24
    14b0:	f1 04       	cpc	r15, r1
    14b2:	41 f0       	breq	.+16     	; 0x14c4 <effect_gradient.1517+0x9c>
    14b4:	ce 14       	cp	r12, r14
    14b6:	df 04       	cpc	r13, r15
    14b8:	b4 f6       	brge	.-84     	; 0x1466 <effect_gradient.1517+0x3e>
    14ba:	60 e0       	ldi	r22, 0x00	; 0
    14bc:	70 e0       	ldi	r23, 0x00	; 0
    14be:	80 e0       	ldi	r24, 0x00	; 0
    14c0:	90 e0       	ldi	r25, 0x00	; 0
    14c2:	e0 cf       	rjmp	.-64     	; 0x1484 <effect_gradient.1517+0x5c>
    14c4:	cf 5f       	subi	r28, 0xFF	; 255
    14c6:	c8 30       	cpi	r28, 0x08	; 8
    14c8:	59 f6       	brne	.-106    	; 0x1460 <effect_gradient.1517+0x38>
    14ca:	df 91       	pop	r29
    14cc:	cf 91       	pop	r28
    14ce:	1f 91       	pop	r17
    14d0:	0f 91       	pop	r16
    14d2:	ff 90       	pop	r15
    14d4:	ef 90       	pop	r14
    14d6:	df 90       	pop	r13
    14d8:	cf 90       	pop	r12
    14da:	08 95       	ret

000014dc <init_stairs_x.1515>:
    14dc:	0f 93       	push	r16
    14de:	1f 93       	push	r17
    14e0:	cf 93       	push	r28
    14e2:	0e 94 e5 09 	call	0x13ca	; 0x13ca <clear_buffer>
    14e6:	c0 e0       	ldi	r28, 0x00	; 0
    14e8:	0f ef       	ldi	r16, 0xFF	; 255
    14ea:	1f e0       	ldi	r17, 0x0F	; 15
    14ec:	27 e0       	ldi	r18, 0x07	; 7
    14ee:	40 e0       	ldi	r20, 0x00	; 0
    14f0:	6c 2f       	mov	r22, r28
    14f2:	8c 2f       	mov	r24, r28
    14f4:	0e 94 95 09 	call	0x132a	; 0x132a <set_row>
    14f8:	cf 5f       	subi	r28, 0xFF	; 255
    14fa:	c8 30       	cpi	r28, 0x08	; 8
    14fc:	a9 f7       	brne	.-22     	; 0x14e8 <init_stairs_x.1515+0xc>
    14fe:	cf 91       	pop	r28
    1500:	1f 91       	pop	r17
    1502:	0f 91       	pop	r16
    1504:	08 95       	ret

00001506 <effect_sine.1505>:
    1506:	0e 94 e5 09 	call	0x13ca	; 0x13ca <clear_buffer>
    150a:	8b e7       	ldi	r24, 0x7B	; 123
    150c:	98 e0       	ldi	r25, 0x08	; 8
    150e:	0c 94 b1 09 	jmp	0x1362	; 0x1362 <iterate_xy>

00001512 <effect_wave.1503>:
    1512:	0e 94 e5 09 	call	0x13ca	; 0x13ca <clear_buffer>
    1516:	84 e0       	ldi	r24, 0x04	; 4
    1518:	99 e0       	ldi	r25, 0x09	; 9
    151a:	0c 94 b1 09 	jmp	0x1362	; 0x1362 <iterate_xy>

0000151e <effect_constant.1501>:
    151e:	0e 94 e5 09 	call	0x13ca	; 0x13ca <clear_buffer>
    1522:	86 e5       	ldi	r24, 0x56	; 86
    1524:	98 e0       	ldi	r25, 0x08	; 8
    1526:	0c 94 b1 09 	jmp	0x1362	; 0x1362 <iterate_xy>

0000152a <effect_all_on.1486>:
    152a:	0e 94 e5 09 	call	0x13ca	; 0x13ca <clear_buffer>
    152e:	82 e5       	ldi	r24, 0x52	; 82
    1530:	98 e0       	ldi	r25, 0x08	; 8
    1532:	0c 94 c7 09 	jmp	0x138e	; 0x138e <iterate_xyz>

00001536 <init_stairs_y.1464>:
    1536:	cf 93       	push	r28
    1538:	df 93       	push	r29
    153a:	0e 94 e5 09 	call	0x13ca	; 0x13ca <clear_buffer>
    153e:	d0 e0       	ldi	r29, 0x00	; 0
    1540:	c0 e0       	ldi	r28, 0x00	; 0
    1542:	2f ef       	ldi	r18, 0xFF	; 255
    1544:	3f e0       	ldi	r19, 0x0F	; 15
    1546:	4c 2f       	mov	r20, r28
    1548:	6c 2f       	mov	r22, r28
    154a:	8d 2f       	mov	r24, r29
    154c:	0e 94 fe 07 	call	0xffc	; 0xffc <set_led_8_8_12>
    1550:	cf 5f       	subi	r28, 0xFF	; 255
    1552:	c8 30       	cpi	r28, 0x08	; 8
    1554:	b1 f7       	brne	.-20     	; 0x1542 <init_stairs_y.1464+0xc>
    1556:	df 5f       	subi	r29, 0xFF	; 255
    1558:	d8 30       	cpi	r29, 0x08	; 8
    155a:	91 f7       	brne	.-28     	; 0x1540 <init_stairs_y.1464+0xa>
    155c:	df 91       	pop	r29
    155e:	cf 91       	pop	r28
    1560:	08 95       	ret

00001562 <effect_matrix.1462>:
    1562:	9f 92       	push	r9
    1564:	af 92       	push	r10
    1566:	bf 92       	push	r11
    1568:	cf 92       	push	r12
    156a:	df 92       	push	r13
    156c:	ef 92       	push	r14
    156e:	ff 92       	push	r15
    1570:	0f 93       	push	r16
    1572:	1f 93       	push	r17
    1574:	cf 93       	push	r28
    1576:	df 93       	push	r29
    1578:	0e 94 e5 09 	call	0x13ca	; 0x13ca <clear_buffer>
    157c:	90 e3       	ldi	r25, 0x30	; 48
    157e:	c9 2e       	mov	r12, r25
    1580:	94 e0       	ldi	r25, 0x04	; 4
    1582:	d9 2e       	mov	r13, r25
    1584:	00 e0       	ldi	r16, 0x00	; 0
    1586:	10 e0       	ldi	r17, 0x00	; 0
    1588:	f8 01       	movw	r30, r16
    158a:	ee 0f       	add	r30, r30
    158c:	ff 1f       	adc	r31, r31
    158e:	e0 0f       	add	r30, r16
    1590:	f1 1f       	adc	r31, r17
    1592:	e2 5d       	subi	r30, 0xD2	; 210
    1594:	fb 4f       	sbci	r31, 0xFB	; 251
    1596:	90 80       	ld	r9, Z
    1598:	a1 80       	ldd	r10, Z+1	; 0x01
    159a:	b2 80       	ldd	r11, Z+2	; 0x02
    159c:	c0 e0       	ldi	r28, 0x00	; 0
    159e:	d0 e0       	ldi	r29, 0x00	; 0
    15a0:	eb 2c       	mov	r14, r11
    15a2:	f1 2c       	mov	r15, r1
    15a4:	9e 01       	movw	r18, r28
    15a6:	2e 0d       	add	r18, r14
    15a8:	3f 1d       	adc	r19, r15
    15aa:	28 30       	cpi	r18, 0x08	; 8
    15ac:	31 05       	cpc	r19, r1
    15ae:	fc f0       	brlt	.+62     	; 0x15ee <effect_matrix.1462+0x8c>
    15b0:	21 96       	adiw	r28, 0x01	; 1
    15b2:	c3 30       	cpi	r28, 0x03	; 3
    15b4:	d1 05       	cpc	r29, r1
    15b6:	b1 f7       	brne	.-20     	; 0x15a4 <effect_matrix.1462+0x42>
    15b8:	8b 2d       	mov	r24, r11
    15ba:	8f 5f       	subi	r24, 0xFF	; 255
    15bc:	88 30       	cpi	r24, 0x08	; 8
    15be:	08 f0       	brcs	.+2      	; 0x15c2 <effect_matrix.1462+0x60>
    15c0:	80 e0       	ldi	r24, 0x00	; 0
    15c2:	f6 01       	movw	r30, r12
    15c4:	80 83       	st	Z, r24
    15c6:	0f 5f       	subi	r16, 0xFF	; 255
    15c8:	1f 4f       	sbci	r17, 0xFF	; 255
    15ca:	f3 e0       	ldi	r31, 0x03	; 3
    15cc:	cf 0e       	add	r12, r31
    15ce:	d1 1c       	adc	r13, r1
    15d0:	0a 30       	cpi	r16, 0x0A	; 10
    15d2:	11 05       	cpc	r17, r1
    15d4:	c9 f6       	brne	.-78     	; 0x1588 <effect_matrix.1462+0x26>
    15d6:	df 91       	pop	r29
    15d8:	cf 91       	pop	r28
    15da:	1f 91       	pop	r17
    15dc:	0f 91       	pop	r16
    15de:	ff 90       	pop	r15
    15e0:	ef 90       	pop	r14
    15e2:	df 90       	pop	r13
    15e4:	cf 90       	pop	r12
    15e6:	bf 90       	pop	r11
    15e8:	af 90       	pop	r10
    15ea:	9f 90       	pop	r9
    15ec:	08 95       	ret
    15ee:	4c 2f       	mov	r20, r28
    15f0:	4b 0d       	add	r20, r11
    15f2:	2f ef       	ldi	r18, 0xFF	; 255
    15f4:	3f e0       	ldi	r19, 0x0F	; 15
    15f6:	6a 2d       	mov	r22, r10
    15f8:	89 2d       	mov	r24, r9
    15fa:	0e 94 fe 07 	call	0xffc	; 0xffc <set_led_8_8_12>
    15fe:	d8 cf       	rjmp	.-80     	; 0x15b0 <effect_matrix.1462+0x4e>

00001600 <effect_layers.1460>:
    1600:	1f 93       	push	r17
    1602:	cf 93       	push	r28
    1604:	df 93       	push	r29
    1606:	0e 94 e5 09 	call	0x13ca	; 0x13ca <clear_buffer>
    160a:	40 91 25 01 	lds	r20, 0x0125
    160e:	50 91 26 01 	lds	r21, 0x0126
    1612:	44 0f       	add	r20, r20
    1614:	45 2f       	mov	r20, r21
    1616:	44 1f       	adc	r20, r20
    1618:	55 0b       	sbc	r21, r21
    161a:	51 95       	neg	r21
    161c:	14 2f       	mov	r17, r20
    161e:	17 70       	andi	r17, 0x07	; 7
    1620:	d0 e0       	ldi	r29, 0x00	; 0
    1622:	c0 e0       	ldi	r28, 0x00	; 0
    1624:	2f ef       	ldi	r18, 0xFF	; 255
    1626:	3f e0       	ldi	r19, 0x0F	; 15
    1628:	41 2f       	mov	r20, r17
    162a:	6c 2f       	mov	r22, r28
    162c:	8d 2f       	mov	r24, r29
    162e:	0e 94 fe 07 	call	0xffc	; 0xffc <set_led_8_8_12>
    1632:	cf 5f       	subi	r28, 0xFF	; 255
    1634:	c8 30       	cpi	r28, 0x08	; 8
    1636:	b1 f7       	brne	.-20     	; 0x1624 <effect_layers.1460+0x24>
    1638:	df 5f       	subi	r29, 0xFF	; 255
    163a:	d8 30       	cpi	r29, 0x08	; 8
    163c:	91 f7       	brne	.-28     	; 0x1622 <effect_layers.1460+0x22>
    163e:	df 91       	pop	r29
    1640:	cf 91       	pop	r28
    1642:	1f 91       	pop	r17
    1644:	08 95       	ret

00001646 <effect_starfield.1458>:
    1646:	ff 92       	push	r15
    1648:	0f 93       	push	r16
    164a:	1f 93       	push	r17
    164c:	cf 93       	push	r28
    164e:	df 93       	push	r29
    1650:	0e 94 e5 09 	call	0x13ca	; 0x13ca <clear_buffer>
    1654:	0f e2       	ldi	r16, 0x2F	; 47
    1656:	14 e0       	ldi	r17, 0x04	; 4
    1658:	c0 e0       	ldi	r28, 0x00	; 0
    165a:	d0 e0       	ldi	r29, 0x00	; 0
    165c:	fe 01       	movw	r30, r28
    165e:	ee 0f       	add	r30, r30
    1660:	ff 1f       	adc	r31, r31
    1662:	ec 0f       	add	r30, r28
    1664:	fd 1f       	adc	r31, r29
    1666:	e2 5d       	subi	r30, 0xD2	; 210
    1668:	fb 4f       	sbci	r31, 0xFB	; 251
    166a:	f1 80       	ldd	r15, Z+1	; 0x01
    166c:	2f ef       	ldi	r18, 0xFF	; 255
    166e:	3f e0       	ldi	r19, 0x0F	; 15
    1670:	42 81       	ldd	r20, Z+2	; 0x02
    1672:	6f 2d       	mov	r22, r15
    1674:	80 81       	ld	r24, Z
    1676:	0e 94 fe 07 	call	0xffc	; 0xffc <set_led_8_8_12>
    167a:	6f 2d       	mov	r22, r15
    167c:	6f 5f       	subi	r22, 0xFF	; 255
    167e:	68 30       	cpi	r22, 0x08	; 8
    1680:	08 f0       	brcs	.+2      	; 0x1684 <effect_starfield.1458+0x3e>
    1682:	60 e0       	ldi	r22, 0x00	; 0
    1684:	f8 01       	movw	r30, r16
    1686:	60 83       	st	Z, r22
    1688:	21 96       	adiw	r28, 0x01	; 1
    168a:	0d 5f       	subi	r16, 0xFD	; 253
    168c:	1f 4f       	sbci	r17, 0xFF	; 255
    168e:	ca 30       	cpi	r28, 0x0A	; 10
    1690:	d1 05       	cpc	r29, r1
    1692:	21 f7       	brne	.-56     	; 0x165c <effect_starfield.1458+0x16>
    1694:	df 91       	pop	r29
    1696:	cf 91       	pop	r28
    1698:	1f 91       	pop	r17
    169a:	0f 91       	pop	r16
    169c:	ff 90       	pop	r15
    169e:	08 95       	ret

000016a0 <effect_test_sensor1.1456>:
    16a0:	1f 93       	push	r17
    16a2:	cf 93       	push	r28
    16a4:	df 93       	push	r29
    16a6:	0e 94 e5 09 	call	0x13ca	; 0x13ca <clear_buffer>
    16aa:	10 91 02 01 	lds	r17, 0x0102
    16ae:	8d ec       	ldi	r24, 0xCD	; 205
    16b0:	18 9f       	mul	r17, r24
    16b2:	11 2d       	mov	r17, r1
    16b4:	11 24       	eor	r1, r1
    16b6:	12 95       	swap	r17
    16b8:	1f 70       	andi	r17, 0x0F	; 15
    16ba:	18 30       	cpi	r17, 0x08	; 8
    16bc:	08 f0       	brcs	.+2      	; 0x16c0 <effect_test_sensor1.1456+0x20>
    16be:	17 e0       	ldi	r17, 0x07	; 7
    16c0:	d0 e0       	ldi	r29, 0x00	; 0
    16c2:	c0 e0       	ldi	r28, 0x00	; 0
    16c4:	2f ef       	ldi	r18, 0xFF	; 255
    16c6:	3f e0       	ldi	r19, 0x0F	; 15
    16c8:	41 2f       	mov	r20, r17
    16ca:	6c 2f       	mov	r22, r28
    16cc:	8d 2f       	mov	r24, r29
    16ce:	0e 94 fe 07 	call	0xffc	; 0xffc <set_led_8_8_12>
    16d2:	cf 5f       	subi	r28, 0xFF	; 255
    16d4:	c8 30       	cpi	r28, 0x08	; 8
    16d6:	b1 f7       	brne	.-20     	; 0x16c4 <effect_test_sensor1.1456+0x24>
    16d8:	df 5f       	subi	r29, 0xFF	; 255
    16da:	d2 30       	cpi	r29, 0x02	; 2
    16dc:	91 f7       	brne	.-28     	; 0x16c2 <effect_test_sensor1.1456+0x22>
    16de:	10 91 03 01 	lds	r17, 0x0103
    16e2:	8d ec       	ldi	r24, 0xCD	; 205
    16e4:	18 9f       	mul	r17, r24
    16e6:	11 2d       	mov	r17, r1
    16e8:	11 24       	eor	r1, r1
    16ea:	12 95       	swap	r17
    16ec:	1f 70       	andi	r17, 0x0F	; 15
    16ee:	18 30       	cpi	r17, 0x08	; 8
    16f0:	08 f0       	brcs	.+2      	; 0x16f4 <effect_test_sensor1.1456+0x54>
    16f2:	17 e0       	ldi	r17, 0x07	; 7
    16f4:	d2 e0       	ldi	r29, 0x02	; 2
    16f6:	c0 e0       	ldi	r28, 0x00	; 0
    16f8:	2f ef       	ldi	r18, 0xFF	; 255
    16fa:	3f e0       	ldi	r19, 0x0F	; 15
    16fc:	41 2f       	mov	r20, r17
    16fe:	6c 2f       	mov	r22, r28
    1700:	8d 2f       	mov	r24, r29
    1702:	0e 94 fe 07 	call	0xffc	; 0xffc <set_led_8_8_12>
    1706:	cf 5f       	subi	r28, 0xFF	; 255
    1708:	c8 30       	cpi	r28, 0x08	; 8
    170a:	b1 f7       	brne	.-20     	; 0x16f8 <effect_test_sensor1.1456+0x58>
    170c:	df 5f       	subi	r29, 0xFF	; 255
    170e:	d4 30       	cpi	r29, 0x04	; 4
    1710:	91 f7       	brne	.-28     	; 0x16f6 <effect_test_sensor1.1456+0x56>
    1712:	10 91 04 01 	lds	r17, 0x0104
    1716:	12 95       	swap	r17
    1718:	16 95       	lsr	r17
    171a:	17 70       	andi	r17, 0x07	; 7
    171c:	d4 e0       	ldi	r29, 0x04	; 4
    171e:	c0 e0       	ldi	r28, 0x00	; 0
    1720:	2f ef       	ldi	r18, 0xFF	; 255
    1722:	3f e0       	ldi	r19, 0x0F	; 15
    1724:	41 2f       	mov	r20, r17
    1726:	6c 2f       	mov	r22, r28
    1728:	8d 2f       	mov	r24, r29
    172a:	0e 94 fe 07 	call	0xffc	; 0xffc <set_led_8_8_12>
    172e:	cf 5f       	subi	r28, 0xFF	; 255
    1730:	c8 30       	cpi	r28, 0x08	; 8
    1732:	b1 f7       	brne	.-20     	; 0x1720 <effect_test_sensor1.1456+0x80>
    1734:	df 5f       	subi	r29, 0xFF	; 255
    1736:	d6 30       	cpi	r29, 0x06	; 6
    1738:	91 f7       	brne	.-28     	; 0x171e <effect_test_sensor1.1456+0x7e>
    173a:	10 91 05 01 	lds	r17, 0x0105
    173e:	12 95       	swap	r17
    1740:	16 95       	lsr	r17
    1742:	17 70       	andi	r17, 0x07	; 7
    1744:	d6 e0       	ldi	r29, 0x06	; 6
    1746:	c0 e0       	ldi	r28, 0x00	; 0
    1748:	2f ef       	ldi	r18, 0xFF	; 255
    174a:	3f e0       	ldi	r19, 0x0F	; 15
    174c:	41 2f       	mov	r20, r17
    174e:	6c 2f       	mov	r22, r28
    1750:	8d 2f       	mov	r24, r29
    1752:	0e 94 fe 07 	call	0xffc	; 0xffc <set_led_8_8_12>
    1756:	cf 5f       	subi	r28, 0xFF	; 255
    1758:	c8 30       	cpi	r28, 0x08	; 8
    175a:	b1 f7       	brne	.-20     	; 0x1748 <effect_test_sensor1.1456+0xa8>
    175c:	df 5f       	subi	r29, 0xFF	; 255
    175e:	d8 30       	cpi	r29, 0x08	; 8
    1760:	91 f7       	brne	.-28     	; 0x1746 <effect_test_sensor1.1456+0xa6>
    1762:	df 91       	pop	r29
    1764:	cf 91       	pop	r28
    1766:	1f 91       	pop	r17
    1768:	08 95       	ret

0000176a <effect_countdown.1454>:
    176a:	cf 93       	push	r28
    176c:	df 93       	push	r29
    176e:	00 d0       	rcall	.+0      	; 0x1770 <effect_countdown.1454+0x6>
    1770:	1f 92       	push	r1
    1772:	cd b7       	in	r28, 0x3d	; 61
    1774:	de b7       	in	r29, 0x3e	; 62
    1776:	82 e0       	ldi	r24, 0x02	; 2
    1778:	89 83       	std	Y+1, r24	; 0x01
    177a:	90 91 2e 04 	lds	r25, 0x042E
    177e:	8d ec       	ldi	r24, 0xCD	; 205
    1780:	98 9f       	mul	r25, r24
    1782:	81 2d       	mov	r24, r1
    1784:	11 24       	eor	r1, r1
    1786:	86 95       	lsr	r24
    1788:	86 95       	lsr	r24
    178a:	86 95       	lsr	r24
    178c:	28 2f       	mov	r18, r24
    178e:	20 5d       	subi	r18, 0xD0	; 208
    1790:	2a 83       	std	Y+2, r18	; 0x02
    1792:	2a e0       	ldi	r18, 0x0A	; 10
    1794:	82 9f       	mul	r24, r18
    1796:	90 19       	sub	r25, r0
    1798:	11 24       	eor	r1, r1
    179a:	89 2f       	mov	r24, r25
    179c:	80 5d       	subi	r24, 0xD0	; 208
    179e:	8b 83       	std	Y+3, r24	; 0x03
    17a0:	0e 94 e5 09 	call	0x13ca	; 0x13ca <clear_buffer>
    17a4:	2b e4       	ldi	r18, 0x4B	; 75
    17a6:	38 e0       	ldi	r19, 0x08	; 8
    17a8:	49 e0       	ldi	r20, 0x09	; 9
    17aa:	50 e0       	ldi	r21, 0x00	; 0
    17ac:	60 e0       	ldi	r22, 0x00	; 0
    17ae:	ce 01       	movw	r24, r28
    17b0:	01 96       	adiw	r24, 0x01	; 1
    17b2:	0e 94 74 07 	call	0xee8	; 0xee8 <scroll_text>
    17b6:	22 e4       	ldi	r18, 0x42	; 66
    17b8:	38 e0       	ldi	r19, 0x08	; 8
    17ba:	40 e1       	ldi	r20, 0x10	; 16
    17bc:	50 e0       	ldi	r21, 0x00	; 0
    17be:	60 e0       	ldi	r22, 0x00	; 0
    17c0:	ce 01       	movw	r24, r28
    17c2:	01 96       	adiw	r24, 0x01	; 1
    17c4:	0e 94 74 07 	call	0xee8	; 0xee8 <scroll_text>
    17c8:	80 91 2e 04 	lds	r24, 0x042E
    17cc:	88 23       	and	r24, r24
    17ce:	19 f0       	breq	.+6      	; 0x17d6 <effect_countdown.1454+0x6c>
    17d0:	81 50       	subi	r24, 0x01	; 1
    17d2:	80 93 2e 04 	sts	0x042E, r24
    17d6:	0f 90       	pop	r0
    17d8:	0f 90       	pop	r0
    17da:	0f 90       	pop	r0
    17dc:	df 91       	pop	r29
    17de:	cf 91       	pop	r28
    17e0:	08 95       	ret

000017e2 <effect_scroll_text.1452>:
    17e2:	0f 93       	push	r16
    17e4:	1f 93       	push	r17
    17e6:	cf 93       	push	r28
    17e8:	df 93       	push	r29
    17ea:	00 91 2c 01 	lds	r16, 0x012C
    17ee:	10 91 2d 01 	lds	r17, 0x012D
    17f2:	01 15       	cp	r16, r1
    17f4:	11 05       	cpc	r17, r1
    17f6:	01 f1       	breq	.+64     	; 0x1838 <effect_scroll_text.1452+0x56>
    17f8:	0e 94 e5 09 	call	0x13ca	; 0x13ca <clear_buffer>
    17fc:	c0 91 25 01 	lds	r28, 0x0125
    1800:	d0 91 26 01 	lds	r29, 0x0126
    1804:	d6 95       	lsr	r29
    1806:	c7 95       	ror	r28
    1808:	d6 95       	lsr	r29
    180a:	c7 95       	ror	r28
    180c:	d6 95       	lsr	r29
    180e:	c7 95       	ror	r28
    1810:	22 e4       	ldi	r18, 0x42	; 66
    1812:	38 e0       	ldi	r19, 0x08	; 8
    1814:	ae 01       	movw	r20, r28
    1816:	61 e0       	ldi	r22, 0x01	; 1
    1818:	c8 01       	movw	r24, r16
    181a:	0e 94 74 07 	call	0xee8	; 0xee8 <scroll_text>
    181e:	ae 01       	movw	r20, r28
    1820:	47 50       	subi	r20, 0x07	; 7
    1822:	51 09       	sbc	r21, r1
    1824:	2b e4       	ldi	r18, 0x4B	; 75
    1826:	38 e0       	ldi	r19, 0x08	; 8
    1828:	61 e0       	ldi	r22, 0x01	; 1
    182a:	c8 01       	movw	r24, r16
    182c:	df 91       	pop	r29
    182e:	cf 91       	pop	r28
    1830:	1f 91       	pop	r17
    1832:	0f 91       	pop	r16
    1834:	0c 94 74 07 	jmp	0xee8	; 0xee8 <scroll_text>
    1838:	05 e8       	ldi	r16, 0x85	; 133
    183a:	12 e0       	ldi	r17, 0x02	; 2
    183c:	dd cf       	rjmp	.-70     	; 0x17f8 <effect_scroll_text.1452+0x16>

0000183e <init_worm.1450>:
    183e:	84 e0       	ldi	r24, 0x04	; 4
    1840:	90 e0       	ldi	r25, 0x00	; 0
    1842:	90 93 2f 04 	sts	0x042F, r25
    1846:	80 93 2e 04 	sts	0x042E, r24
    184a:	90 93 31 04 	sts	0x0431, r25
    184e:	80 93 30 04 	sts	0x0430, r24
    1852:	90 93 33 04 	sts	0x0433, r25
    1856:	80 93 32 04 	sts	0x0432, r24
    185a:	10 92 35 04 	sts	0x0435, r1
    185e:	10 92 34 04 	sts	0x0434, r1
    1862:	81 e0       	ldi	r24, 0x01	; 1
    1864:	90 e0       	ldi	r25, 0x00	; 0
    1866:	90 93 37 04 	sts	0x0437, r25
    186a:	80 93 36 04 	sts	0x0436, r24
    186e:	0c 94 e5 09 	jmp	0x13ca	; 0x13ca <clear_buffer>

00001872 <init_brownian.1448>:
    1872:	84 e0       	ldi	r24, 0x04	; 4
    1874:	80 93 2e 04 	sts	0x042E, r24
    1878:	80 93 2f 04 	sts	0x042F, r24
    187c:	80 93 30 04 	sts	0x0430, r24
    1880:	0c 94 e5 09 	jmp	0x13ca	; 0x13ca <clear_buffer>

00001884 <heart_layer.1703>:
    1884:	ff 92       	push	r15
    1886:	0f 93       	push	r16
    1888:	1f 93       	push	r17
    188a:	cf 93       	push	r28
    188c:	df 93       	push	r29
    188e:	f8 2e       	mov	r15, r24
    1890:	e6 2f       	mov	r30, r22
    1892:	f0 e0       	ldi	r31, 0x00	; 0
    1894:	ee 0f       	add	r30, r30
    1896:	ff 1f       	adc	r31, r31
    1898:	e4 57       	subi	r30, 0x74	; 116
    189a:	f9 4f       	sbci	r31, 0xF9	; 249
    189c:	c5 91       	lpm	r28, Z+
    189e:	d4 91       	lpm	r29, Z+
    18a0:	8e 01       	movw	r16, r28
    18a2:	22 e0       	ldi	r18, 0x02	; 2
    18a4:	41 e0       	ldi	r20, 0x01	; 1
    18a6:	60 e0       	ldi	r22, 0x00	; 0
    18a8:	0e 94 95 09 	call	0x132a	; 0x132a <set_row>
    18ac:	26 e0       	ldi	r18, 0x06	; 6
    18ae:	45 e0       	ldi	r20, 0x05	; 5
    18b0:	60 e0       	ldi	r22, 0x00	; 0
    18b2:	8f 2d       	mov	r24, r15
    18b4:	0e 94 95 09 	call	0x132a	; 0x132a <set_row>
    18b8:	27 e0       	ldi	r18, 0x07	; 7
    18ba:	40 e0       	ldi	r20, 0x00	; 0
    18bc:	61 e0       	ldi	r22, 0x01	; 1
    18be:	8f 2d       	mov	r24, r15
    18c0:	0e 94 95 09 	call	0x132a	; 0x132a <set_row>
    18c4:	27 e0       	ldi	r18, 0x07	; 7
    18c6:	40 e0       	ldi	r20, 0x00	; 0
    18c8:	62 e0       	ldi	r22, 0x02	; 2
    18ca:	8f 2d       	mov	r24, r15
    18cc:	0e 94 95 09 	call	0x132a	; 0x132a <set_row>
    18d0:	27 e0       	ldi	r18, 0x07	; 7
    18d2:	40 e0       	ldi	r20, 0x00	; 0
    18d4:	63 e0       	ldi	r22, 0x03	; 3
    18d6:	8f 2d       	mov	r24, r15
    18d8:	0e 94 95 09 	call	0x132a	; 0x132a <set_row>
    18dc:	26 e0       	ldi	r18, 0x06	; 6
    18de:	41 e0       	ldi	r20, 0x01	; 1
    18e0:	64 e0       	ldi	r22, 0x04	; 4
    18e2:	8f 2d       	mov	r24, r15
    18e4:	0e 94 95 09 	call	0x132a	; 0x132a <set_row>
    18e8:	25 e0       	ldi	r18, 0x05	; 5
    18ea:	42 e0       	ldi	r20, 0x02	; 2
    18ec:	65 e0       	ldi	r22, 0x05	; 5
    18ee:	8f 2d       	mov	r24, r15
    18f0:	0e 94 95 09 	call	0x132a	; 0x132a <set_row>
    18f4:	24 e0       	ldi	r18, 0x04	; 4
    18f6:	43 e0       	ldi	r20, 0x03	; 3
    18f8:	66 e0       	ldi	r22, 0x06	; 6
    18fa:	8f 2d       	mov	r24, r15
    18fc:	0e 94 95 09 	call	0x132a	; 0x132a <set_row>
    1900:	df 91       	pop	r29
    1902:	cf 91       	pop	r28
    1904:	1f 91       	pop	r17
    1906:	0f 91       	pop	r16
    1908:	ff 90       	pop	r15
    190a:	08 95       	ret

0000190c <heart_shape>:
    190c:	1f 93       	push	r17
    190e:	cf 93       	push	r28
    1910:	df 93       	push	r29
    1912:	c8 2f       	mov	r28, r24
    1914:	d8 2f       	mov	r29, r24
    1916:	d6 95       	lsr	r29
    1918:	d6 95       	lsr	r29
    191a:	6d 2f       	mov	r22, r29
    191c:	81 e0       	ldi	r24, 0x01	; 1
    191e:	0e 94 42 0c 	call	0x1884	; 0x1884 <heart_layer.1703>
    1922:	1c 2f       	mov	r17, r28
    1924:	16 95       	lsr	r17
    1926:	61 2f       	mov	r22, r17
    1928:	82 e0       	ldi	r24, 0x02	; 2
    192a:	0e 94 42 0c 	call	0x1884	; 0x1884 <heart_layer.1703>
    192e:	6c 2f       	mov	r22, r28
    1930:	83 e0       	ldi	r24, 0x03	; 3
    1932:	0e 94 42 0c 	call	0x1884	; 0x1884 <heart_layer.1703>
    1936:	6c 2f       	mov	r22, r28
    1938:	84 e0       	ldi	r24, 0x04	; 4
    193a:	0e 94 42 0c 	call	0x1884	; 0x1884 <heart_layer.1703>
    193e:	61 2f       	mov	r22, r17
    1940:	85 e0       	ldi	r24, 0x05	; 5
    1942:	0e 94 42 0c 	call	0x1884	; 0x1884 <heart_layer.1703>
    1946:	6d 2f       	mov	r22, r29
    1948:	86 e0       	ldi	r24, 0x06	; 6
    194a:	df 91       	pop	r29
    194c:	cf 91       	pop	r28
    194e:	1f 91       	pop	r17
    1950:	0c 94 42 0c 	jmp	0x1884	; 0x1884 <heart_layer.1703>

00001954 <effect_heart.1492>:
    1954:	0e 94 e5 09 	call	0x13ca	; 0x13ca <clear_buffer>
    1958:	20 91 02 01 	lds	r18, 0x0102
    195c:	88 ec       	ldi	r24, 0xC8	; 200
    195e:	90 e0       	ldi	r25, 0x00	; 0
    1960:	82 1b       	sub	r24, r18
    1962:	91 09       	sbc	r25, r1
    1964:	66 ef       	ldi	r22, 0xF6	; 246
    1966:	7f ef       	ldi	r23, 0xFF	; 255
    1968:	0e 94 18 22 	call	0x4430	; 0x4430 <__divmodhi4>
    196c:	ee e2       	ldi	r30, 0x2E	; 46
    196e:	f4 e0       	ldi	r31, 0x04	; 4
    1970:	80 81       	ld	r24, Z
    1972:	86 0f       	add	r24, r22
    1974:	80 83       	st	Z, r24
    1976:	0c 94 86 0c 	jmp	0x190c	; 0x190c <heart_shape>

0000197a <init_game_of_life.1490>:
    197a:	8f ef       	ldi	r24, 0xFF	; 255
    197c:	0c 94 86 0c 	jmp	0x190c	; 0x190c <heart_shape>

00001980 <effect_game_of_life.1488>:
    1980:	10 92 2e 04 	sts	0x042E, r1
    1984:	8d eb       	ldi	r24, 0xBD	; 189
    1986:	94 e1       	ldi	r25, 0x14	; 20
    1988:	0e 94 c7 09 	call	0x138e	; 0x138e <iterate_xyz>
    198c:	80 91 2e 04 	lds	r24, 0x042E
    1990:	81 11       	cpse	r24, r1
    1992:	08 95       	ret
    1994:	8f ef       	ldi	r24, 0xFF	; 255
    1996:	0c 94 86 0c 	jmp	0x190c	; 0x190c <heart_shape>

0000199a <centisecs>:
    199a:	f8 94       	cli
    199c:	20 91 17 01 	lds	r18, 0x0117
    19a0:	30 91 18 01 	lds	r19, 0x0118
    19a4:	78 94       	sei
    19a6:	c9 01       	movw	r24, r18
    19a8:	08 95       	ret

000019aa <send_pulse.part.1.2007>:
    19aa:	3d 9a       	sbi	0x07, 5	; 7
    19ac:	3c 98       	cbi	0x07, 4	; 7
    19ae:	e8 e6       	ldi	r30, 0x68	; 104
    19b0:	f0 e0       	ldi	r31, 0x00	; 0
    19b2:	80 81       	ld	r24, Z
    19b4:	82 60       	ori	r24, 0x02	; 2
    19b6:	80 83       	st	Z, r24
    19b8:	ec e6       	ldi	r30, 0x6C	; 108
    19ba:	f0 e0       	ldi	r31, 0x00	; 0
    19bc:	80 81       	ld	r24, Z
    19be:	80 61       	ori	r24, 0x10	; 16
    19c0:	80 83       	st	Z, r24
    19c2:	45 9a       	sbi	0x08, 5	; 8
    19c4:	e1 e8       	ldi	r30, 0x81	; 129
    19c6:	f0 e0       	ldi	r31, 0x00	; 0
    19c8:	80 81       	ld	r24, Z
    19ca:	88 60       	ori	r24, 0x08	; 8
    19cc:	80 83       	st	Z, r24
    19ce:	80 81       	ld	r24, Z
    19d0:	81 60       	ori	r24, 0x01	; 1
    19d2:	80 83       	st	Z, r24
    19d4:	80 ea       	ldi	r24, 0xA0	; 160
    19d6:	90 e0       	ldi	r25, 0x00	; 0
    19d8:	90 93 89 00 	sts	0x0089, r25
    19dc:	80 93 88 00 	sts	0x0088, r24
    19e0:	10 92 85 00 	sts	0x0085, r1
    19e4:	10 92 84 00 	sts	0x0084, r1
    19e8:	b1 9a       	sbi	0x16, 1	; 22
    19ea:	ef e6       	ldi	r30, 0x6F	; 111
    19ec:	f0 e0       	ldi	r31, 0x00	; 0
    19ee:	80 81       	ld	r24, Z
    19f0:	82 60       	ori	r24, 0x02	; 2
    19f2:	80 83       	st	Z, r24
    19f4:	81 e0       	ldi	r24, 0x01	; 1
    19f6:	80 93 16 01 	sts	0x0116, r24
    19fa:	81 e0       	ldi	r24, 0x01	; 1
    19fc:	90 e0       	ldi	r25, 0x00	; 0
    19fe:	08 95       	ret

00001a00 <hcsr04_get_distance_in_cm>:
    1a00:	f8 94       	cli
    1a02:	40 91 14 01 	lds	r20, 0x0114
    1a06:	50 91 15 01 	lds	r21, 0x0115
    1a0a:	78 94       	sei
    1a0c:	4f 3f       	cpi	r20, 0xFF	; 255
    1a0e:	8f ef       	ldi	r24, 0xFF	; 255
    1a10:	58 07       	cpc	r21, r24
    1a12:	c9 f0       	breq	.+50     	; 0x1a46 <hcsr04_get_distance_in_cm+0x46>
    1a14:	ca 01       	movw	r24, r20
    1a16:	88 0f       	add	r24, r24
    1a18:	99 1f       	adc	r25, r25
    1a1a:	44 0f       	add	r20, r20
    1a1c:	55 1f       	adc	r21, r21
    1a1e:	44 0f       	add	r20, r20
    1a20:	55 1f       	adc	r21, r21
    1a22:	44 0f       	add	r20, r20
    1a24:	55 1f       	adc	r21, r21
    1a26:	84 0f       	add	r24, r20
    1a28:	95 1f       	adc	r25, r21
    1a2a:	9c 01       	movw	r18, r24
    1a2c:	af e8       	ldi	r26, 0x8F	; 143
    1a2e:	b3 ee       	ldi	r27, 0xE3	; 227
    1a30:	0e 94 e8 21 	call	0x43d0	; 0x43d0 <__umulhisi3>
    1a34:	ac 01       	movw	r20, r24
    1a36:	56 95       	lsr	r21
    1a38:	47 95       	ror	r20
    1a3a:	52 95       	swap	r21
    1a3c:	42 95       	swap	r20
    1a3e:	4f 70       	andi	r20, 0x0F	; 15
    1a40:	45 27       	eor	r20, r21
    1a42:	5f 70       	andi	r21, 0x0F	; 15
    1a44:	45 27       	eor	r20, r21
    1a46:	ca 01       	movw	r24, r20
    1a48:	08 95       	ret

00001a4a <select_playlist_item.2051>:
    1a4a:	80 93 2b 01 	sts	0x012B, r24
    1a4e:	25 e0       	ldi	r18, 0x05	; 5
    1a50:	82 9f       	mul	r24, r18
    1a52:	c0 01       	movw	r24, r0
    1a54:	11 24       	eor	r1, r1
    1a56:	8a 57       	subi	r24, 0x7A	; 122
    1a58:	9f 4f       	sbci	r25, 0xFF	; 255
    1a5a:	fc 01       	movw	r30, r24
    1a5c:	24 91       	lpm	r18, Z+
    1a5e:	30 e0       	ldi	r19, 0x00	; 0
    1a60:	22 0f       	add	r18, r18
    1a62:	33 1f       	adc	r19, r19
    1a64:	22 0f       	add	r18, r18
    1a66:	33 1f       	adc	r19, r19
    1a68:	22 0f       	add	r18, r18
    1a6a:	33 1f       	adc	r19, r19
    1a6c:	2b 57       	subi	r18, 0x7B	; 123
    1a6e:	3e 4f       	sbci	r19, 0xFE	; 254
    1a70:	30 93 2a 01 	sts	0x012A, r19
    1a74:	20 93 29 01 	sts	0x0129, r18
    1a78:	31 96       	adiw	r30, 0x01	; 1
    1a7a:	25 91       	lpm	r18, Z+
    1a7c:	34 91       	lpm	r19, Z+
    1a7e:	e7 e2       	ldi	r30, 0x27	; 39
    1a80:	f1 e0       	ldi	r31, 0x01	; 1
    1a82:	20 83       	st	Z, r18
    1a84:	31 83       	std	Z+1, r19	; 0x01
    1a86:	03 96       	adiw	r24, 0x03	; 3
    1a88:	fc 01       	movw	r30, r24
    1a8a:	85 91       	lpm	r24, Z+
    1a8c:	94 91       	lpm	r25, Z+
    1a8e:	ec e2       	ldi	r30, 0x2C	; 44
    1a90:	f1 e0       	ldi	r31, 0x01	; 1
    1a92:	80 83       	st	Z, r24
    1a94:	91 83       	std	Z+1, r25	; 0x01
    1a96:	08 95       	ret

00001a98 <cube_start>:
    1a98:	80 91 23 01 	lds	r24, 0x0123
    1a9c:	80 93 24 01 	sts	0x0124, r24
    1aa0:	e4 e6       	ldi	r30, 0x64	; 100
    1aa2:	f0 e0       	ldi	r31, 0x00	; 0
    1aa4:	80 81       	ld	r24, Z
    1aa6:	8e 7f       	andi	r24, 0xFE	; 254
    1aa8:	80 83       	st	Z, r24
    1aaa:	80 81       	ld	r24, Z
    1aac:	8b 7f       	andi	r24, 0xFB	; 251
    1aae:	80 83       	st	Z, r24
    1ab0:	80 81       	ld	r24, Z
    1ab2:	8f 7d       	andi	r24, 0xDF	; 223
    1ab4:	80 83       	st	Z, r24
    1ab6:	80 81       	ld	r24, Z
    1ab8:	87 7f       	andi	r24, 0xF7	; 247
    1aba:	80 83       	st	Z, r24
    1abc:	ee e6       	ldi	r30, 0x6E	; 110
    1abe:	f0 e0       	ldi	r31, 0x00	; 0
    1ac0:	80 81       	ld	r24, Z
    1ac2:	82 60       	ori	r24, 0x02	; 2
    1ac4:	80 83       	st	Z, r24
    1ac6:	08 95       	ret

00001ac8 <cube_shutdown>:
    1ac8:	e4 e2       	ldi	r30, 0x24	; 36
    1aca:	f1 e0       	ldi	r31, 0x01	; 1
    1acc:	80 81       	ld	r24, Z
    1ace:	80 93 23 01 	sts	0x0123, r24
    1ad2:	83 e0       	ldi	r24, 0x03	; 3
    1ad4:	80 83       	st	Z, r24
    1ad6:	e4 e6       	ldi	r30, 0x64	; 100
    1ad8:	f0 e0       	ldi	r31, 0x00	; 0
    1ada:	80 81       	ld	r24, Z
    1adc:	81 60       	ori	r24, 0x01	; 1
    1ade:	80 83       	st	Z, r24
    1ae0:	80 81       	ld	r24, Z
    1ae2:	84 60       	ori	r24, 0x04	; 4
    1ae4:	80 83       	st	Z, r24
    1ae6:	80 81       	ld	r24, Z
    1ae8:	80 62       	ori	r24, 0x20	; 32
    1aea:	80 83       	st	Z, r24
    1aec:	80 81       	ld	r24, Z
    1aee:	88 60       	ori	r24, 0x08	; 8
    1af0:	80 83       	st	Z, r24
    1af2:	2a 9a       	sbi	0x05, 2	; 5
    1af4:	29 98       	cbi	0x05, 1	; 5
    1af6:	08 95       	ret

00001af8 <serial_ungetc>:
    1af8:	90 91 56 07 	lds	r25, 0x0756
    1afc:	91 11       	cpse	r25, r1
    1afe:	0d c0       	rjmp	.+26     	; 0x1b1a <serial_ungetc+0x22>
    1b00:	9f e3       	ldi	r25, 0x3F	; 63
    1b02:	90 93 56 07 	sts	0x0756, r25
    1b06:	ef e3       	ldi	r30, 0x3F	; 63
    1b08:	f0 e0       	ldi	r31, 0x00	; 0
    1b0a:	e9 5a       	subi	r30, 0xA9	; 169
    1b0c:	f8 4f       	sbci	r31, 0xF8	; 248
    1b0e:	80 83       	st	Z, r24
    1b10:	80 91 12 01 	lds	r24, 0x0112
    1b14:	89 17       	cp	r24, r25
    1b16:	69 f0       	breq	.+26     	; 0x1b32 <serial_ungetc+0x3a>
    1b18:	08 95       	ret
    1b1a:	91 50       	subi	r25, 0x01	; 1
    1b1c:	90 93 56 07 	sts	0x0756, r25
    1b20:	e9 2f       	mov	r30, r25
    1b22:	f0 e0       	ldi	r31, 0x00	; 0
    1b24:	e9 5a       	subi	r30, 0xA9	; 169
    1b26:	f8 4f       	sbci	r31, 0xF8	; 248
    1b28:	80 83       	st	Z, r24
    1b2a:	80 91 12 01 	lds	r24, 0x0112
    1b2e:	89 13       	cpse	r24, r25
    1b30:	f3 cf       	rjmp	.-26     	; 0x1b18 <serial_ungetc+0x20>
    1b32:	81 e0       	ldi	r24, 0x01	; 1
    1b34:	80 93 11 01 	sts	0x0111, r24
    1b38:	08 95       	ret

00001b3a <serial_read_blocking>:
    1b3a:	90 91 56 07 	lds	r25, 0x0756
    1b3e:	80 91 11 01 	lds	r24, 0x0111
    1b42:	81 30       	cpi	r24, 0x01	; 1
    1b44:	e1 f3       	breq	.-8      	; 0x1b3e <serial_read_blocking+0x4>
    1b46:	80 91 12 01 	lds	r24, 0x0112
    1b4a:	89 1b       	sub	r24, r25
    1b4c:	20 91 12 01 	lds	r18, 0x0112
    1b50:	29 17       	cp	r18, r25
    1b52:	08 f4       	brcc	.+2      	; 0x1b56 <serial_read_blocking+0x1c>
    1b54:	80 5c       	subi	r24, 0xC0	; 192
    1b56:	88 23       	and	r24, r24
    1b58:	91 f3       	breq	.-28     	; 0x1b3e <serial_read_blocking+0x4>
    1b5a:	e9 2f       	mov	r30, r25
    1b5c:	f0 e0       	ldi	r31, 0x00	; 0
    1b5e:	e9 5a       	subi	r30, 0xA9	; 169
    1b60:	f8 4f       	sbci	r31, 0xF8	; 248
    1b62:	80 81       	ld	r24, Z
    1b64:	9f 5f       	subi	r25, 0xFF	; 255
    1b66:	90 93 56 07 	sts	0x0756, r25
    1b6a:	90 34       	cpi	r25, 0x40	; 64
    1b6c:	09 f0       	breq	.+2      	; 0x1b70 <serial_read_blocking+0x36>
    1b6e:	08 95       	ret
    1b70:	10 92 56 07 	sts	0x0756, r1
    1b74:	08 95       	ret

00001b76 <serial_send>:
    1b76:	98 2f       	mov	r25, r24
    1b78:	60 91 97 07 	lds	r22, 0x0797
    1b7c:	46 2f       	mov	r20, r22
    1b7e:	50 e0       	ldi	r21, 0x00	; 0
    1b80:	4f 5f       	subi	r20, 0xFF	; 255
    1b82:	5f 4f       	sbci	r21, 0xFF	; 255
    1b84:	20 91 10 01 	lds	r18, 0x0110
    1b88:	30 e0       	ldi	r19, 0x00	; 0
    1b8a:	24 17       	cp	r18, r20
    1b8c:	35 07       	cpc	r19, r21
    1b8e:	d1 f3       	breq	.-12     	; 0x1b84 <serial_send+0xe>
    1b90:	6f 30       	cpi	r22, 0x0F	; 15
    1b92:	21 f4       	brne	.+8      	; 0x1b9c <serial_send+0x26>
    1b94:	80 91 10 01 	lds	r24, 0x0110
    1b98:	88 23       	and	r24, r24
    1b9a:	a1 f3       	breq	.-24     	; 0x1b84 <serial_send+0xe>
    1b9c:	f8 94       	cli
    1b9e:	80 91 97 07 	lds	r24, 0x0797
    1ba2:	20 91 10 01 	lds	r18, 0x0110
    1ba6:	82 17       	cp	r24, r18
    1ba8:	81 f0       	breq	.+32     	; 0x1bca <serial_send+0x54>
    1baa:	e8 2f       	mov	r30, r24
    1bac:	f0 e0       	ldi	r31, 0x00	; 0
    1bae:	e8 56       	subi	r30, 0x68	; 104
    1bb0:	f8 4f       	sbci	r31, 0xF8	; 248
    1bb2:	90 83       	st	Z, r25
    1bb4:	8f 5f       	subi	r24, 0xFF	; 255
    1bb6:	80 93 97 07 	sts	0x0797, r24
    1bba:	80 31       	cpi	r24, 0x10	; 16
    1bbc:	71 f0       	breq	.+28     	; 0x1bda <serial_send+0x64>
    1bbe:	90 91 10 01 	lds	r25, 0x0110
    1bc2:	98 17       	cp	r25, r24
    1bc4:	89 f0       	breq	.+34     	; 0x1be8 <serial_send+0x72>
    1bc6:	78 94       	sei
    1bc8:	08 95       	ret
    1bca:	20 91 c0 00 	lds	r18, 0x00C0
    1bce:	25 ff       	sbrs	r18, 5
    1bd0:	ec cf       	rjmp	.-40     	; 0x1baa <serial_send+0x34>
    1bd2:	90 93 c6 00 	sts	0x00C6, r25
    1bd6:	78 94       	sei
    1bd8:	08 95       	ret
    1bda:	10 92 97 07 	sts	0x0797, r1
    1bde:	80 e0       	ldi	r24, 0x00	; 0
    1be0:	90 91 10 01 	lds	r25, 0x0110
    1be4:	98 13       	cpse	r25, r24
    1be6:	ef cf       	rjmp	.-34     	; 0x1bc6 <serial_send+0x50>
    1be8:	81 e0       	ldi	r24, 0x01	; 1
    1bea:	80 93 0f 01 	sts	0x010F, r24
    1bee:	78 94       	sei
    1bf0:	08 95       	ret

00001bf2 <report.2058>:
    1bf2:	cf 93       	push	r28
    1bf4:	c8 2f       	mov	r28, r24
    1bf6:	8e e7       	ldi	r24, 0x7E	; 126
    1bf8:	0e 94 bb 0d 	call	0x1b76	; 0x1b76 <serial_send>
    1bfc:	8c 2f       	mov	r24, r28
    1bfe:	cf 91       	pop	r28
    1c00:	0c 94 bb 0d 	jmp	0x1b76	; 0x1b76 <serial_send>

00001c04 <serial_hello>:
    1c04:	cf 93       	push	r28
    1c06:	c8 2f       	mov	r28, r24
    1c08:	88 e6       	ldi	r24, 0x68	; 104
    1c0a:	0e 94 bb 0d 	call	0x1b76	; 0x1b76 <serial_send>
    1c0e:	85 e6       	ldi	r24, 0x65	; 101
    1c10:	0e 94 bb 0d 	call	0x1b76	; 0x1b76 <serial_send>
    1c14:	8c e6       	ldi	r24, 0x6C	; 108
    1c16:	0e 94 bb 0d 	call	0x1b76	; 0x1b76 <serial_send>
    1c1a:	8c e6       	ldi	r24, 0x6C	; 108
    1c1c:	0e 94 bb 0d 	call	0x1b76	; 0x1b76 <serial_send>
    1c20:	8f e6       	ldi	r24, 0x6F	; 111
    1c22:	0e 94 bb 0d 	call	0x1b76	; 0x1b76 <serial_send>
    1c26:	8c 2f       	mov	r24, r28
    1c28:	80 5d       	subi	r24, 0xD0	; 208
    1c2a:	cf 91       	pop	r28
    1c2c:	0c 94 bb 0d 	jmp	0x1b76	; 0x1b76 <serial_send>

00001c30 <send_escaped>:
    1c30:	cf 93       	push	r28
    1c32:	c8 2f       	mov	r28, r24
    1c34:	0e 94 bb 0d 	call	0x1b76	; 0x1b76 <serial_send>
    1c38:	ce 37       	cpi	r28, 0x7E	; 126
    1c3a:	11 f0       	breq	.+4      	; 0x1c40 <send_escaped+0x10>
    1c3c:	cf 91       	pop	r28
    1c3e:	08 95       	ret
    1c40:	80 e0       	ldi	r24, 0x00	; 0
    1c42:	cf 91       	pop	r28
    1c44:	0c 94 bb 0d 	jmp	0x1b76	; 0x1b76 <serial_send>

00001c48 <serial_to_sram>:
    1c48:	ef 92       	push	r14
    1c4a:	ff 92       	push	r15
    1c4c:	0f 93       	push	r16
    1c4e:	1f 93       	push	r17
    1c50:	cf 93       	push	r28
    1c52:	df 93       	push	r29
    1c54:	7b 01       	movw	r14, r22
    1c56:	61 15       	cp	r22, r1
    1c58:	71 05       	cpc	r23, r1
    1c5a:	01 f1       	breq	.+64     	; 0x1c9c <serial_to_sram+0x54>
    1c5c:	8c 01       	movw	r16, r24
    1c5e:	c0 e0       	ldi	r28, 0x00	; 0
    1c60:	d0 e0       	ldi	r29, 0x00	; 0
    1c62:	07 c0       	rjmp	.+14     	; 0x1c72 <serial_to_sram+0x2a>
    1c64:	f8 01       	movw	r30, r16
    1c66:	81 93       	st	Z+, r24
    1c68:	8f 01       	movw	r16, r30
    1c6a:	21 96       	adiw	r28, 0x01	; 1
    1c6c:	ce 15       	cp	r28, r14
    1c6e:	df 05       	cpc	r29, r15
    1c70:	69 f0       	breq	.+26     	; 0x1c8c <serial_to_sram+0x44>
    1c72:	0e 94 9d 0d 	call	0x1b3a	; 0x1b3a <serial_read_blocking>
    1c76:	8e 37       	cpi	r24, 0x7E	; 126
    1c78:	a9 f7       	brne	.-22     	; 0x1c64 <serial_to_sram+0x1c>
    1c7a:	0e 94 9d 0d 	call	0x1b3a	; 0x1b3a <serial_read_blocking>
    1c7e:	88 23       	and	r24, r24
    1c80:	89 f3       	breq	.-30     	; 0x1c64 <serial_to_sram+0x1c>
    1c82:	0e 94 7c 0d 	call	0x1af8	; 0x1af8 <serial_ungetc>
    1c86:	8e e7       	ldi	r24, 0x7E	; 126
    1c88:	0e 94 7c 0d 	call	0x1af8	; 0x1af8 <serial_ungetc>
    1c8c:	ce 01       	movw	r24, r28
    1c8e:	df 91       	pop	r29
    1c90:	cf 91       	pop	r28
    1c92:	1f 91       	pop	r17
    1c94:	0f 91       	pop	r16
    1c96:	ff 90       	pop	r15
    1c98:	ef 90       	pop	r14
    1c9a:	08 95       	ret
    1c9c:	c0 e0       	ldi	r28, 0x00	; 0
    1c9e:	d0 e0       	ldi	r29, 0x00	; 0
    1ca0:	f5 cf       	rjmp	.-22     	; 0x1c8c <serial_to_sram+0x44>

00001ca2 <tlc5940_set_dimming>:
    1ca2:	80 31       	cpi	r24, 0x10	; 16
    1ca4:	40 f0       	brcs	.+16     	; 0x1cb6 <tlc5940_set_dimming+0x14>
    1ca6:	68 2f       	mov	r22, r24
    1ca8:	80 e0       	ldi	r24, 0x00	; 0
    1caa:	9f e0       	ldi	r25, 0x0F	; 15
    1cac:	70 e0       	ldi	r23, 0x00	; 0
    1cae:	0e 94 04 22 	call	0x4408	; 0x4408 <__udivmodhi4>
    1cb2:	67 bd       	out	0x27, r22	; 39
    1cb4:	08 95       	ret
    1cb6:	8f ef       	ldi	r24, 0xFF	; 255
    1cb8:	87 bd       	out	0x27, r24	; 39
    1cba:	08 95       	ret

00001cbc <time.constprop.0>:
    1cbc:	0f 93       	push	r16
    1cbe:	1f 93       	push	r17
    1cc0:	f8 94       	cli
    1cc2:	90 91 ad 07 	lds	r25, 0x07AD
    1cc6:	80 91 a8 07 	lds	r24, 0x07A8
    1cca:	20 91 a9 07 	lds	r18, 0x07A9
    1cce:	82 27       	eor	r24, r18
    1cd0:	25 e5       	ldi	r18, 0x55	; 85
    1cd2:	82 27       	eor	r24, r18
    1cd4:	20 91 aa 07 	lds	r18, 0x07AA
    1cd8:	82 27       	eor	r24, r18
    1cda:	20 91 ab 07 	lds	r18, 0x07AB
    1cde:	82 27       	eor	r24, r18
    1ce0:	89 17       	cp	r24, r25
    1ce2:	49 f0       	breq	.+18     	; 0x1cf6 <time.constprop.0+0x3a>
    1ce4:	00 e0       	ldi	r16, 0x00	; 0
    1ce6:	10 e0       	ldi	r17, 0x00	; 0
    1ce8:	98 01       	movw	r18, r16
    1cea:	78 94       	sei
    1cec:	b8 01       	movw	r22, r16
    1cee:	c9 01       	movw	r24, r18
    1cf0:	1f 91       	pop	r17
    1cf2:	0f 91       	pop	r16
    1cf4:	08 95       	ret
    1cf6:	00 91 a8 07 	lds	r16, 0x07A8
    1cfa:	10 91 a9 07 	lds	r17, 0x07A9
    1cfe:	20 91 aa 07 	lds	r18, 0x07AA
    1d02:	30 91 ab 07 	lds	r19, 0x07AB
    1d06:	78 94       	sei
    1d08:	b8 01       	movw	r22, r16
    1d0a:	c9 01       	movw	r24, r18
    1d0c:	1f 91       	pop	r17
    1d0e:	0f 91       	pop	r16
    1d10:	08 95       	ret

00001d12 <effect_clock.1523>:
    1d12:	8f 92       	push	r8
    1d14:	9f 92       	push	r9
    1d16:	af 92       	push	r10
    1d18:	bf 92       	push	r11
    1d1a:	cf 92       	push	r12
    1d1c:	df 92       	push	r13
    1d1e:	ef 92       	push	r14
    1d20:	ff 92       	push	r15
    1d22:	1f 93       	push	r17
    1d24:	cf 93       	push	r28
    1d26:	df 93       	push	r29
    1d28:	cd b7       	in	r28, 0x3d	; 61
    1d2a:	de b7       	in	r29, 0x3e	; 62
    1d2c:	29 97       	sbiw	r28, 0x09	; 9
    1d2e:	0f b6       	in	r0, 0x3f	; 63
    1d30:	f8 94       	cli
    1d32:	de bf       	out	0x3e, r29	; 62
    1d34:	0f be       	out	0x3f, r0	; 63
    1d36:	cd bf       	out	0x3d, r28	; 61
    1d38:	88 e0       	ldi	r24, 0x08	; 8
    1d3a:	89 83       	std	Y+1, r24	; 0x01
    1d3c:	8a e3       	ldi	r24, 0x3A	; 58
    1d3e:	8c 83       	std	Y+4, r24	; 0x04
    1d40:	8f 83       	std	Y+7, r24	; 0x07
    1d42:	0e 94 5e 0e 	call	0x1cbc	; 0x1cbc <time.constprop.0>
    1d46:	60 5d       	subi	r22, 0xD0	; 208
    1d48:	75 4d       	sbci	r23, 0xD5	; 213
    1d4a:	8f 4f       	sbci	r24, 0xFF	; 255
    1d4c:	9f 4f       	sbci	r25, 0xFF	; 255
    1d4e:	20 e8       	ldi	r18, 0x80	; 128
    1d50:	31 e5       	ldi	r19, 0x51	; 81
    1d52:	41 e0       	ldi	r20, 0x01	; 1
    1d54:	50 e0       	ldi	r21, 0x00	; 0
    1d56:	0e 94 2c 22 	call	0x4458	; 0x4458 <__udivmodsi4>
    1d5a:	6b 01       	movw	r12, r22
    1d5c:	7c 01       	movw	r14, r24
    1d5e:	bc e3       	ldi	r27, 0x3C	; 60
    1d60:	8b 2e       	mov	r8, r27
    1d62:	91 2c       	mov	r9, r1
    1d64:	a1 2c       	mov	r10, r1
    1d66:	b1 2c       	mov	r11, r1
    1d68:	a5 01       	movw	r20, r10
    1d6a:	94 01       	movw	r18, r8
    1d6c:	0e 94 2c 22 	call	0x4458	; 0x4458 <__udivmodsi4>
    1d70:	16 2f       	mov	r17, r22
    1d72:	ca 01       	movw	r24, r20
    1d74:	b9 01       	movw	r22, r18
    1d76:	a5 01       	movw	r20, r10
    1d78:	94 01       	movw	r18, r8
    1d7a:	0e 94 2c 22 	call	0x4458	; 0x4458 <__udivmodsi4>
    1d7e:	b6 2e       	mov	r11, r22
    1d80:	c7 01       	movw	r24, r14
    1d82:	b6 01       	movw	r22, r12
    1d84:	20 e1       	ldi	r18, 0x10	; 16
    1d86:	3e e0       	ldi	r19, 0x0E	; 14
    1d88:	40 e0       	ldi	r20, 0x00	; 0
    1d8a:	50 e0       	ldi	r21, 0x00	; 0
    1d8c:	0e 94 2c 22 	call	0x4458	; 0x4458 <__udivmodsi4>
    1d90:	8d ec       	ldi	r24, 0xCD	; 205
    1d92:	28 9f       	mul	r18, r24
    1d94:	91 2d       	mov	r25, r1
    1d96:	11 24       	eor	r1, r1
    1d98:	96 95       	lsr	r25
    1d9a:	96 95       	lsr	r25
    1d9c:	96 95       	lsr	r25
    1d9e:	39 2f       	mov	r19, r25
    1da0:	30 5d       	subi	r19, 0xD0	; 208
    1da2:	3a 83       	std	Y+2, r19	; 0x02
    1da4:	3a e0       	ldi	r19, 0x0A	; 10
    1da6:	93 9f       	mul	r25, r19
    1da8:	20 19       	sub	r18, r0
    1daa:	11 24       	eor	r1, r1
    1dac:	20 5d       	subi	r18, 0xD0	; 208
    1dae:	2b 83       	std	Y+3, r18	; 0x03
    1db0:	b8 9e       	mul	r11, r24
    1db2:	91 2d       	mov	r25, r1
    1db4:	11 24       	eor	r1, r1
    1db6:	96 95       	lsr	r25
    1db8:	96 95       	lsr	r25
    1dba:	96 95       	lsr	r25
    1dbc:	29 2f       	mov	r18, r25
    1dbe:	20 5d       	subi	r18, 0xD0	; 208
    1dc0:	2d 83       	std	Y+5, r18	; 0x05
    1dc2:	2a e0       	ldi	r18, 0x0A	; 10
    1dc4:	92 9f       	mul	r25, r18
    1dc6:	b0 18       	sub	r11, r0
    1dc8:	11 24       	eor	r1, r1
    1dca:	9b 2d       	mov	r25, r11
    1dcc:	90 5d       	subi	r25, 0xD0	; 208
    1dce:	9e 83       	std	Y+6, r25	; 0x06
    1dd0:	18 9f       	mul	r17, r24
    1dd2:	81 2d       	mov	r24, r1
    1dd4:	11 24       	eor	r1, r1
    1dd6:	86 95       	lsr	r24
    1dd8:	86 95       	lsr	r24
    1dda:	86 95       	lsr	r24
    1ddc:	98 2f       	mov	r25, r24
    1dde:	90 5d       	subi	r25, 0xD0	; 208
    1de0:	98 87       	std	Y+8, r25	; 0x08
    1de2:	3a e0       	ldi	r19, 0x0A	; 10
    1de4:	83 9f       	mul	r24, r19
    1de6:	10 19       	sub	r17, r0
    1de8:	11 24       	eor	r1, r1
    1dea:	10 5d       	subi	r17, 0xD0	; 208
    1dec:	19 87       	std	Y+9, r17	; 0x09
    1dee:	0e 94 e5 09 	call	0x13ca	; 0x13ca <clear_buffer>
    1df2:	e0 90 25 01 	lds	r14, 0x0125
    1df6:	f0 90 26 01 	lds	r15, 0x0126
    1dfa:	f6 94       	lsr	r15
    1dfc:	e7 94       	ror	r14
    1dfe:	f6 94       	lsr	r15
    1e00:	e7 94       	ror	r14
    1e02:	f6 94       	lsr	r15
    1e04:	e7 94       	ror	r14
    1e06:	22 e4       	ldi	r18, 0x42	; 66
    1e08:	38 e0       	ldi	r19, 0x08	; 8
    1e0a:	a7 01       	movw	r20, r14
    1e0c:	60 e0       	ldi	r22, 0x00	; 0
    1e0e:	ce 01       	movw	r24, r28
    1e10:	01 96       	adiw	r24, 0x01	; 1
    1e12:	0e 94 74 07 	call	0xee8	; 0xee8 <scroll_text>
    1e16:	a7 01       	movw	r20, r14
    1e18:	47 50       	subi	r20, 0x07	; 7
    1e1a:	51 09       	sbc	r21, r1
    1e1c:	2b e4       	ldi	r18, 0x4B	; 75
    1e1e:	38 e0       	ldi	r19, 0x08	; 8
    1e20:	60 e0       	ldi	r22, 0x00	; 0
    1e22:	ce 01       	movw	r24, r28
    1e24:	01 96       	adiw	r24, 0x01	; 1
    1e26:	0e 94 74 07 	call	0xee8	; 0xee8 <scroll_text>
    1e2a:	29 96       	adiw	r28, 0x09	; 9
    1e2c:	0f b6       	in	r0, 0x3f	; 63
    1e2e:	f8 94       	cli
    1e30:	de bf       	out	0x3e, r29	; 62
    1e32:	0f be       	out	0x3f, r0	; 63
    1e34:	cd bf       	out	0x3d, r28	; 61
    1e36:	df 91       	pop	r29
    1e38:	cf 91       	pop	r28
    1e3a:	1f 91       	pop	r17
    1e3c:	ff 90       	pop	r15
    1e3e:	ef 90       	pop	r14
    1e40:	df 90       	pop	r13
    1e42:	cf 90       	pop	r12
    1e44:	bf 90       	pop	r11
    1e46:	af 90       	pop	r10
    1e48:	9f 90       	pop	r9
    1e4a:	8f 90       	pop	r8
    1e4c:	08 95       	ret

00001e4e <circle_shape.constprop.1>:
    1e4e:	5f 92       	push	r5
    1e50:	8f 92       	push	r8
    1e52:	9f 92       	push	r9
    1e54:	af 92       	push	r10
    1e56:	bf 92       	push	r11
    1e58:	cf 92       	push	r12
    1e5a:	df 92       	push	r13
    1e5c:	ef 92       	push	r14
    1e5e:	ff 92       	push	r15
    1e60:	0f 93       	push	r16
    1e62:	1f 93       	push	r17
    1e64:	cf 93       	push	r28
    1e66:	df 93       	push	r29
    1e68:	cd b7       	in	r28, 0x3d	; 61
    1e6a:	de b7       	in	r29, 0x3e	; 62
    1e6c:	62 97       	sbiw	r28, 0x12	; 18
    1e6e:	0f b6       	in	r0, 0x3f	; 63
    1e70:	f8 94       	cli
    1e72:	de bf       	out	0x3e, r29	; 62
    1e74:	0f be       	out	0x3f, r0	; 63
    1e76:	cd bf       	out	0x3d, r28	; 61
    1e78:	4c 87       	std	Y+12, r20	; 0x0c
    1e7a:	48 01       	movw	r8, r16
    1e7c:	59 01       	movw	r10, r18
    1e7e:	84 50       	subi	r24, 0x04	; 4
    1e80:	64 50       	subi	r22, 0x04	; 4
    1e82:	99 27       	eor	r25, r25
    1e84:	87 fd       	sbrc	r24, 7
    1e86:	90 95       	com	r25
    1e88:	9c 01       	movw	r18, r24
    1e8a:	29 5f       	subi	r18, 0xF9	; 249
    1e8c:	3f 4f       	sbci	r19, 0xFF	; 255
    1e8e:	38 8b       	std	Y+16, r19	; 0x10
    1e90:	2f 87       	std	Y+15, r18	; 0x0f
    1e92:	46 2f       	mov	r20, r22
    1e94:	55 27       	eor	r21, r21
    1e96:	47 fd       	sbrc	r20, 7
    1e98:	50 95       	com	r21
    1e9a:	5e 87       	std	Y+14, r21	; 0x0e
    1e9c:	4d 87       	std	Y+13, r20	; 0x0d
    1e9e:	49 5f       	subi	r20, 0xF9	; 249
    1ea0:	5f 4f       	sbci	r21, 0xFF	; 255
    1ea2:	5a 83       	std	Y+2, r21	; 0x02
    1ea4:	49 83       	std	Y+1, r20	; 0x01
    1ea6:	fc 01       	movw	r30, r24
    1ea8:	31 96       	adiw	r30, 0x01	; 1
    1eaa:	fb 87       	std	Y+11, r31	; 0x0b
    1eac:	ea 87       	std	Y+10, r30	; 0x0a
    1eae:	1f 82       	std	Y+7, r1	; 0x07
    1eb0:	2d 85       	ldd	r18, Y+13	; 0x0d
    1eb2:	3e 85       	ldd	r19, Y+14	; 0x0e
    1eb4:	2f 5f       	subi	r18, 0xFF	; 255
    1eb6:	3f 4f       	sbci	r19, 0xFF	; 255
    1eb8:	39 87       	std	Y+9, r19	; 0x09
    1eba:	28 87       	std	Y+8, r18	; 0x08
    1ebc:	cb 82       	std	Y+3, r12	; 0x03
    1ebe:	dc 82       	std	Y+4, r13	; 0x04
    1ec0:	ed 82       	std	Y+5, r14	; 0x05
    1ec2:	fe 82       	std	Y+6, r15	; 0x06
    1ec4:	88 9f       	mul	r24, r24
    1ec6:	70 01       	movw	r14, r0
    1ec8:	89 9f       	mul	r24, r25
    1eca:	f0 0c       	add	r15, r0
    1ecc:	f0 0c       	add	r15, r0
    1ece:	11 24       	eor	r1, r1
    1ed0:	d8 84       	ldd	r13, Y+8	; 0x08
    1ed2:	c9 84       	ldd	r12, Y+9	; 0x09
    1ed4:	8d 85       	ldd	r24, Y+13	; 0x0d
    1ed6:	9e 85       	ldd	r25, Y+14	; 0x0e
    1ed8:	51 2c       	mov	r5, r1
    1eda:	0d c0       	rjmp	.+26     	; 0x1ef6 <circle_shape.constprop.1+0xa8>
    1edc:	8d 2d       	mov	r24, r13
    1ede:	9c 2d       	mov	r25, r12
    1ee0:	53 94       	inc	r5
    1ee2:	9c 01       	movw	r18, r24
    1ee4:	2f 5f       	subi	r18, 0xFF	; 255
    1ee6:	3f 4f       	sbci	r19, 0xFF	; 255
    1ee8:	49 81       	ldd	r20, Y+1	; 0x01
    1eea:	5a 81       	ldd	r21, Y+2	; 0x02
    1eec:	48 17       	cp	r20, r24
    1eee:	59 07       	cpc	r21, r25
    1ef0:	84 f1       	brlt	.+96     	; 0x1f52 <circle_shape.constprop.1+0x104>
    1ef2:	d2 2e       	mov	r13, r18
    1ef4:	c3 2e       	mov	r12, r19
    1ef6:	88 9f       	mul	r24, r24
    1ef8:	b0 01       	movw	r22, r0
    1efa:	89 9f       	mul	r24, r25
    1efc:	70 0d       	add	r23, r0
    1efe:	70 0d       	add	r23, r0
    1f00:	11 24       	eor	r1, r1
    1f02:	6e 0d       	add	r22, r14
    1f04:	7f 1d       	adc	r23, r15
    1f06:	88 27       	eor	r24, r24
    1f08:	77 fd       	sbrc	r23, 7
    1f0a:	80 95       	com	r24
    1f0c:	98 2f       	mov	r25, r24
    1f0e:	0e 94 4e 20 	call	0x409c	; 0x409c <__floatsisf>
    1f12:	8b 01       	movw	r16, r22
    1f14:	8a 8b       	std	Y+18, r24	; 0x12
    1f16:	99 8b       	std	Y+17, r25	; 0x11
    1f18:	a5 01       	movw	r20, r10
    1f1a:	94 01       	movw	r18, r8
    1f1c:	71 2f       	mov	r23, r17
    1f1e:	0e 94 fe 20 	call	0x41fc	; 0x41fc <__gesf2>
    1f22:	18 16       	cp	r1, r24
    1f24:	dc f6       	brge	.-74     	; 0x1edc <circle_shape.constprop.1+0x8e>
    1f26:	2b 81       	ldd	r18, Y+3	; 0x03
    1f28:	3c 81       	ldd	r19, Y+4	; 0x04
    1f2a:	4d 81       	ldd	r20, Y+5	; 0x05
    1f2c:	5e 81       	ldd	r21, Y+6	; 0x06
    1f2e:	fa 89       	ldd	r31, Y+18	; 0x12
    1f30:	e9 89       	ldd	r30, Y+17	; 0x11
    1f32:	60 2f       	mov	r22, r16
    1f34:	71 2f       	mov	r23, r17
    1f36:	8f 2f       	mov	r24, r31
    1f38:	9e 2f       	mov	r25, r30
    1f3a:	0e 94 b4 1f 	call	0x3f68	; 0x3f68 <__cmpsf2>
    1f3e:	87 ff       	sbrs	r24, 7
    1f40:	cd cf       	rjmp	.-102    	; 0x1edc <circle_shape.constprop.1+0x8e>
    1f42:	2f ef       	ldi	r18, 0xFF	; 255
    1f44:	3f e0       	ldi	r19, 0x0F	; 15
    1f46:	4c 85       	ldd	r20, Y+12	; 0x0c
    1f48:	65 2d       	mov	r22, r5
    1f4a:	8f 81       	ldd	r24, Y+7	; 0x07
    1f4c:	0e 94 fe 07 	call	0xffc	; 0xffc <set_led_8_8_12>
    1f50:	c5 cf       	rjmp	.-118    	; 0x1edc <circle_shape.constprop.1+0x8e>
    1f52:	8a 85       	ldd	r24, Y+10	; 0x0a
    1f54:	9b 85       	ldd	r25, Y+11	; 0x0b
    1f56:	5f 81       	ldd	r21, Y+7	; 0x07
    1f58:	5f 5f       	subi	r21, 0xFF	; 255
    1f5a:	5f 83       	std	Y+7, r21	; 0x07
    1f5c:	9c 01       	movw	r18, r24
    1f5e:	2f 5f       	subi	r18, 0xFF	; 255
    1f60:	3f 4f       	sbci	r19, 0xFF	; 255
    1f62:	ef 85       	ldd	r30, Y+15	; 0x0f
    1f64:	f8 89       	ldd	r31, Y+16	; 0x10
    1f66:	e8 17       	cp	r30, r24
    1f68:	f9 07       	cpc	r31, r25
    1f6a:	1c f0       	brlt	.+6      	; 0x1f72 <circle_shape.constprop.1+0x124>
    1f6c:	3b 87       	std	Y+11, r19	; 0x0b
    1f6e:	2a 87       	std	Y+10, r18	; 0x0a
    1f70:	a9 cf       	rjmp	.-174    	; 0x1ec4 <circle_shape.constprop.1+0x76>
    1f72:	62 96       	adiw	r28, 0x12	; 18
    1f74:	0f b6       	in	r0, 0x3f	; 63
    1f76:	f8 94       	cli
    1f78:	de bf       	out	0x3e, r29	; 62
    1f7a:	0f be       	out	0x3f, r0	; 63
    1f7c:	cd bf       	out	0x3d, r28	; 61
    1f7e:	df 91       	pop	r29
    1f80:	cf 91       	pop	r28
    1f82:	1f 91       	pop	r17
    1f84:	0f 91       	pop	r16
    1f86:	ff 90       	pop	r15
    1f88:	ef 90       	pop	r14
    1f8a:	df 90       	pop	r13
    1f8c:	cf 90       	pop	r12
    1f8e:	bf 90       	pop	r11
    1f90:	af 90       	pop	r10
    1f92:	9f 90       	pop	r9
    1f94:	8f 90       	pop	r8
    1f96:	5f 90       	pop	r5
    1f98:	08 95       	ret

00001f9a <effect_circle.1507>:
    1f9a:	cf 92       	push	r12
    1f9c:	df 92       	push	r13
    1f9e:	ef 92       	push	r14
    1fa0:	ff 92       	push	r15
    1fa2:	0f 93       	push	r16
    1fa4:	1f 93       	push	r17
    1fa6:	c1 2c       	mov	r12, r1
    1fa8:	d1 2c       	mov	r13, r1
    1faa:	00 e2       	ldi	r16, 0x20	; 32
    1fac:	e0 2e       	mov	r14, r16
    1fae:	01 e4       	ldi	r16, 0x41	; 65
    1fb0:	f0 2e       	mov	r15, r16
    1fb2:	00 e0       	ldi	r16, 0x00	; 0
    1fb4:	10 e0       	ldi	r17, 0x00	; 0
    1fb6:	20 ec       	ldi	r18, 0xC0	; 192
    1fb8:	30 e4       	ldi	r19, 0x40	; 64
    1fba:	40 e0       	ldi	r20, 0x00	; 0
    1fbc:	60 e0       	ldi	r22, 0x00	; 0
    1fbe:	80 e0       	ldi	r24, 0x00	; 0
    1fc0:	0e 94 27 0f 	call	0x1e4e	; 0x1e4e <circle_shape.constprop.1>
    1fc4:	1f 91       	pop	r17
    1fc6:	0f 91       	pop	r16
    1fc8:	ff 90       	pop	r15
    1fca:	ef 90       	pop	r14
    1fcc:	df 90       	pop	r13
    1fce:	cf 90       	pop	r12
    1fd0:	08 95       	ret

00001fd2 <effect_tube.1509>:
    1fd2:	cf 92       	push	r12
    1fd4:	df 92       	push	r13
    1fd6:	ef 92       	push	r14
    1fd8:	ff 92       	push	r15
    1fda:	0f 93       	push	r16
    1fdc:	1f 93       	push	r17
    1fde:	0e 94 e5 09 	call	0x13ca	; 0x13ca <clear_buffer>
    1fe2:	40 91 25 01 	lds	r20, 0x0125
    1fe6:	50 91 26 01 	lds	r21, 0x0126
    1fea:	56 95       	lsr	r21
    1fec:	47 95       	ror	r20
    1fee:	56 95       	lsr	r21
    1ff0:	47 95       	ror	r20
    1ff2:	47 70       	andi	r20, 0x07	; 7
    1ff4:	55 27       	eor	r21, r21
    1ff6:	c1 2c       	mov	r12, r1
    1ff8:	d1 2c       	mov	r13, r1
    1ffa:	90 e2       	ldi	r25, 0x20	; 32
    1ffc:	e9 2e       	mov	r14, r25
    1ffe:	91 e4       	ldi	r25, 0x41	; 65
    2000:	f9 2e       	mov	r15, r25
    2002:	00 e0       	ldi	r16, 0x00	; 0
    2004:	10 e0       	ldi	r17, 0x00	; 0
    2006:	20 ec       	ldi	r18, 0xC0	; 192
    2008:	30 e4       	ldi	r19, 0x40	; 64
    200a:	60 e0       	ldi	r22, 0x00	; 0
    200c:	80 e0       	ldi	r24, 0x00	; 0
    200e:	0e 94 27 0f 	call	0x1e4e	; 0x1e4e <circle_shape.constprop.1>
    2012:	1f 91       	pop	r17
    2014:	0f 91       	pop	r16
    2016:	ff 90       	pop	r15
    2018:	ef 90       	pop	r14
    201a:	df 90       	pop	r13
    201c:	cf 90       	pop	r12
    201e:	08 95       	ret

00002020 <effect_tornado.1511>:
    2020:	cf 92       	push	r12
    2022:	df 92       	push	r13
    2024:	ef 92       	push	r14
    2026:	ff 92       	push	r15
    2028:	0f 93       	push	r16
    202a:	1f 93       	push	r17
    202c:	cf 93       	push	r28
    202e:	df 93       	push	r29
    2030:	c0 91 25 01 	lds	r28, 0x0125
    2034:	c2 95       	swap	r28
    2036:	c1 70       	andi	r28, 0x01	; 1
    2038:	dc 2f       	mov	r29, r28
    203a:	0e 94 e5 09 	call	0x13ca	; 0x13ca <clear_buffer>
    203e:	c1 2c       	mov	r12, r1
    2040:	d1 2c       	mov	r13, r1
    2042:	20 e5       	ldi	r18, 0x50	; 80
    2044:	e2 2e       	mov	r14, r18
    2046:	21 e4       	ldi	r18, 0x41	; 65
    2048:	f2 2e       	mov	r15, r18
    204a:	00 e0       	ldi	r16, 0x00	; 0
    204c:	10 e0       	ldi	r17, 0x00	; 0
    204e:	20 e1       	ldi	r18, 0x10	; 16
    2050:	31 e4       	ldi	r19, 0x41	; 65
    2052:	40 e0       	ldi	r20, 0x00	; 0
    2054:	60 e0       	ldi	r22, 0x00	; 0
    2056:	8c 2f       	mov	r24, r28
    2058:	0e 94 27 0f 	call	0x1e4e	; 0x1e4e <circle_shape.constprop.1>
    205c:	d1 95       	neg	r29
    205e:	c1 2c       	mov	r12, r1
    2060:	d1 2c       	mov	r13, r1
    2062:	30 e4       	ldi	r19, 0x40	; 64
    2064:	e3 2e       	mov	r14, r19
    2066:	31 e4       	ldi	r19, 0x41	; 65
    2068:	f3 2e       	mov	r15, r19
    206a:	00 e0       	ldi	r16, 0x00	; 0
    206c:	10 e0       	ldi	r17, 0x00	; 0
    206e:	20 e0       	ldi	r18, 0x00	; 0
    2070:	31 e4       	ldi	r19, 0x41	; 65
    2072:	41 e0       	ldi	r20, 0x01	; 1
    2074:	60 e0       	ldi	r22, 0x00	; 0
    2076:	8d 2f       	mov	r24, r29
    2078:	0e 94 27 0f 	call	0x1e4e	; 0x1e4e <circle_shape.constprop.1>
    207c:	c1 2c       	mov	r12, r1
    207e:	d1 2c       	mov	r13, r1
    2080:	40 e3       	ldi	r20, 0x30	; 48
    2082:	e4 2e       	mov	r14, r20
    2084:	41 e4       	ldi	r20, 0x41	; 65
    2086:	f4 2e       	mov	r15, r20
    2088:	00 e0       	ldi	r16, 0x00	; 0
    208a:	10 e0       	ldi	r17, 0x00	; 0
    208c:	20 ee       	ldi	r18, 0xE0	; 224
    208e:	30 e4       	ldi	r19, 0x40	; 64
    2090:	42 e0       	ldi	r20, 0x02	; 2
    2092:	6c 2f       	mov	r22, r28
    2094:	80 e0       	ldi	r24, 0x00	; 0
    2096:	0e 94 27 0f 	call	0x1e4e	; 0x1e4e <circle_shape.constprop.1>
    209a:	c1 2c       	mov	r12, r1
    209c:	d1 2c       	mov	r13, r1
    209e:	50 e2       	ldi	r21, 0x20	; 32
    20a0:	e5 2e       	mov	r14, r21
    20a2:	51 e4       	ldi	r21, 0x41	; 65
    20a4:	f5 2e       	mov	r15, r21
    20a6:	00 e0       	ldi	r16, 0x00	; 0
    20a8:	10 e0       	ldi	r17, 0x00	; 0
    20aa:	20 ee       	ldi	r18, 0xE0	; 224
    20ac:	30 e4       	ldi	r19, 0x40	; 64
    20ae:	43 e0       	ldi	r20, 0x03	; 3
    20b0:	6d 2f       	mov	r22, r29
    20b2:	80 e0       	ldi	r24, 0x00	; 0
    20b4:	0e 94 27 0f 	call	0x1e4e	; 0x1e4e <circle_shape.constprop.1>
    20b8:	c1 2c       	mov	r12, r1
    20ba:	d1 2c       	mov	r13, r1
    20bc:	60 e1       	ldi	r22, 0x10	; 16
    20be:	e6 2e       	mov	r14, r22
    20c0:	61 e4       	ldi	r22, 0x41	; 65
    20c2:	f6 2e       	mov	r15, r22
    20c4:	00 e0       	ldi	r16, 0x00	; 0
    20c6:	10 e0       	ldi	r17, 0x00	; 0
    20c8:	20 ec       	ldi	r18, 0xC0	; 192
    20ca:	30 e4       	ldi	r19, 0x40	; 64
    20cc:	44 e0       	ldi	r20, 0x04	; 4
    20ce:	60 e0       	ldi	r22, 0x00	; 0
    20d0:	8c 2f       	mov	r24, r28
    20d2:	0e 94 27 0f 	call	0x1e4e	; 0x1e4e <circle_shape.constprop.1>
    20d6:	c1 2c       	mov	r12, r1
    20d8:	d1 2c       	mov	r13, r1
    20da:	70 ea       	ldi	r23, 0xA0	; 160
    20dc:	e7 2e       	mov	r14, r23
    20de:	70 e4       	ldi	r23, 0x40	; 64
    20e0:	f7 2e       	mov	r15, r23
    20e2:	00 e0       	ldi	r16, 0x00	; 0
    20e4:	10 e0       	ldi	r17, 0x00	; 0
    20e6:	20 e4       	ldi	r18, 0x40	; 64
    20e8:	30 e4       	ldi	r19, 0x40	; 64
    20ea:	45 e0       	ldi	r20, 0x05	; 5
    20ec:	60 e0       	ldi	r22, 0x00	; 0
    20ee:	8d 2f       	mov	r24, r29
    20f0:	0e 94 27 0f 	call	0x1e4e	; 0x1e4e <circle_shape.constprop.1>
    20f4:	c1 2c       	mov	r12, r1
    20f6:	d1 2c       	mov	r13, r1
    20f8:	e0 e4       	ldi	r30, 0x40	; 64
    20fa:	ee 2e       	mov	r14, r30
    20fc:	fe 2c       	mov	r15, r14
    20fe:	00 e0       	ldi	r16, 0x00	; 0
    2100:	10 e0       	ldi	r17, 0x00	; 0
    2102:	20 e8       	ldi	r18, 0x80	; 128
    2104:	3f e3       	ldi	r19, 0x3F	; 63
    2106:	46 e0       	ldi	r20, 0x06	; 6
    2108:	6c 2f       	mov	r22, r28
    210a:	80 e0       	ldi	r24, 0x00	; 0
    210c:	0e 94 27 0f 	call	0x1e4e	; 0x1e4e <circle_shape.constprop.1>
    2110:	2f ef       	ldi	r18, 0xFF	; 255
    2112:	3f e0       	ldi	r19, 0x0F	; 15
    2114:	47 e0       	ldi	r20, 0x07	; 7
    2116:	64 e0       	ldi	r22, 0x04	; 4
    2118:	8c 2f       	mov	r24, r28
    211a:	df 91       	pop	r29
    211c:	cf 91       	pop	r28
    211e:	1f 91       	pop	r17
    2120:	0f 91       	pop	r16
    2122:	ff 90       	pop	r15
    2124:	ef 90       	pop	r14
    2126:	df 90       	pop	r13
    2128:	cf 90       	pop	r12
    212a:	0c 94 fe 07 	jmp	0xffc	; 0xffc <set_led_8_8_12>

0000212e <effect_sphere.1499>:
    212e:	5f 92       	push	r5
    2130:	8f 92       	push	r8
    2132:	9f 92       	push	r9
    2134:	af 92       	push	r10
    2136:	bf 92       	push	r11
    2138:	cf 92       	push	r12
    213a:	df 92       	push	r13
    213c:	ef 92       	push	r14
    213e:	ff 92       	push	r15
    2140:	0f 93       	push	r16
    2142:	1f 93       	push	r17
    2144:	cf 93       	push	r28
    2146:	df 93       	push	r29
    2148:	cd b7       	in	r28, 0x3d	; 61
    214a:	de b7       	in	r29, 0x3e	; 62
    214c:	6d 97       	sbiw	r28, 0x1d	; 29
    214e:	0f b6       	in	r0, 0x3f	; 63
    2150:	f8 94       	cli
    2152:	de bf       	out	0x3e, r29	; 62
    2154:	0f be       	out	0x3f, r0	; 63
    2156:	cd bf       	out	0x3d, r28	; 61
    2158:	40 91 25 01 	lds	r20, 0x0125
    215c:	50 91 26 01 	lds	r21, 0x0126
    2160:	56 95       	lsr	r21
    2162:	47 95       	ror	r20
    2164:	56 95       	lsr	r21
    2166:	47 95       	ror	r20
    2168:	56 95       	lsr	r21
    216a:	47 95       	ror	r20
    216c:	9a 01       	movw	r18, r20
    216e:	ad ec       	ldi	r26, 0xCD	; 205
    2170:	bc ec       	ldi	r27, 0xCC	; 204
    2172:	0e 94 e8 21 	call	0x43d0	; 0x43d0 <__umulhisi3>
    2176:	96 95       	lsr	r25
    2178:	87 95       	ror	r24
    217a:	96 95       	lsr	r25
    217c:	87 95       	ror	r24
    217e:	96 95       	lsr	r25
    2180:	87 95       	ror	r24
    2182:	9c 01       	movw	r18, r24
    2184:	22 0f       	add	r18, r18
    2186:	33 1f       	adc	r19, r19
    2188:	88 0f       	add	r24, r24
    218a:	99 1f       	adc	r25, r25
    218c:	88 0f       	add	r24, r24
    218e:	99 1f       	adc	r25, r25
    2190:	88 0f       	add	r24, r24
    2192:	99 1f       	adc	r25, r25
    2194:	28 0f       	add	r18, r24
    2196:	39 1f       	adc	r19, r25
    2198:	ba 01       	movw	r22, r20
    219a:	62 1b       	sub	r22, r18
    219c:	73 0b       	sbc	r23, r19
    219e:	80 e0       	ldi	r24, 0x00	; 0
    21a0:	90 e0       	ldi	r25, 0x00	; 0
    21a2:	0e 94 4c 20 	call	0x4098	; 0x4098 <__floatunsisf>
    21a6:	20 e0       	ldi	r18, 0x00	; 0
    21a8:	30 e0       	ldi	r19, 0x00	; 0
    21aa:	40 e2       	ldi	r20, 0x20	; 32
    21ac:	51 e4       	ldi	r21, 0x41	; 65
    21ae:	0e 94 b8 1f 	call	0x3f70	; 0x3f70 <__divsf3>
    21b2:	6a 87       	std	Y+10, r22	; 0x0a
    21b4:	7b 87       	std	Y+11, r23	; 0x0b
    21b6:	8c 87       	std	Y+12, r24	; 0x0c
    21b8:	9d 87       	std	Y+13, r25	; 0x0d
    21ba:	0e 94 e5 09 	call	0x13ca	; 0x13ca <clear_buffer>
    21be:	20 e0       	ldi	r18, 0x00	; 0
    21c0:	30 e0       	ldi	r19, 0x00	; 0
    21c2:	40 e2       	ldi	r20, 0x20	; 32
    21c4:	51 e4       	ldi	r21, 0x41	; 65
    21c6:	ba 85       	ldd	r27, Y+10	; 0x0a
    21c8:	ab 85       	ldd	r26, Y+11	; 0x0b
    21ca:	ec 85       	ldd	r30, Y+12	; 0x0c
    21cc:	1d 85       	ldd	r17, Y+13	; 0x0d
    21ce:	6b 2f       	mov	r22, r27
    21d0:	7a 2f       	mov	r23, r26
    21d2:	8e 2f       	mov	r24, r30
    21d4:	91 2f       	mov	r25, r17
    21d6:	0e 94 02 21 	call	0x4204	; 0x4204 <__mulsf3>
    21da:	6a 83       	std	Y+2, r22	; 0x02
    21dc:	7b 83       	std	Y+3, r23	; 0x03
    21de:	8c 83       	std	Y+4, r24	; 0x04
    21e0:	9d 83       	std	Y+5, r25	; 0x05
    21e2:	88 e0       	ldi	r24, 0x08	; 8
    21e4:	90 e0       	ldi	r25, 0x00	; 0
    21e6:	99 8f       	std	Y+25, r25	; 0x19
    21e8:	88 8f       	std	Y+24, r24	; 0x18
    21ea:	18 8a       	std	Y+16, r1	; 0x10
    21ec:	19 8a       	std	Y+17, r1	; 0x11
    21ee:	90 e4       	ldi	r25, 0x40	; 64
    21f0:	9a 8b       	std	Y+18, r25	; 0x12
    21f2:	e0 ec       	ldi	r30, 0xC0	; 192
    21f4:	eb 8b       	std	Y+19, r30	; 0x13
    21f6:	78 89       	ldd	r23, Y+16	; 0x10
    21f8:	69 89       	ldd	r22, Y+17	; 0x11
    21fa:	9a 89       	ldd	r25, Y+18	; 0x12
    21fc:	8b 89       	ldd	r24, Y+19	; 0x13
    21fe:	27 2f       	mov	r18, r23
    2200:	36 2f       	mov	r19, r22
    2202:	49 2f       	mov	r20, r25
    2204:	58 2f       	mov	r21, r24
    2206:	db 01       	movw	r26, r22
    2208:	6b 2f       	mov	r22, r27
    220a:	7a 2f       	mov	r23, r26
    220c:	89 2f       	mov	r24, r25
    220e:	95 2f       	mov	r25, r21
    2210:	0e 94 02 21 	call	0x4204	; 0x4204 <__mulsf3>
    2214:	6c 8b       	std	Y+20, r22	; 0x14
    2216:	7d 8b       	std	Y+21, r23	; 0x15
    2218:	8e 8b       	std	Y+22, r24	; 0x16
    221a:	9f 8b       	std	Y+23, r25	; 0x17
    221c:	88 e0       	ldi	r24, 0x08	; 8
    221e:	90 e0       	ldi	r25, 0x00	; 0
    2220:	9f 87       	std	Y+15, r25	; 0x0f
    2222:	8e 87       	std	Y+14, r24	; 0x0e
    2224:	1e 82       	std	Y+6, r1	; 0x06
    2226:	1f 82       	std	Y+7, r1	; 0x07
    2228:	90 e4       	ldi	r25, 0x40	; 64
    222a:	98 87       	std	Y+8, r25	; 0x08
    222c:	e0 ec       	ldi	r30, 0xC0	; 192
    222e:	e9 87       	std	Y+9, r30	; 0x09
    2230:	7e 81       	ldd	r23, Y+6	; 0x06
    2232:	6f 81       	ldd	r22, Y+7	; 0x07
    2234:	98 85       	ldd	r25, Y+8	; 0x08
    2236:	89 85       	ldd	r24, Y+9	; 0x09
    2238:	27 2f       	mov	r18, r23
    223a:	36 2f       	mov	r19, r22
    223c:	49 2f       	mov	r20, r25
    223e:	58 2f       	mov	r21, r24
    2240:	db 01       	movw	r26, r22
    2242:	6b 2f       	mov	r22, r27
    2244:	7a 2f       	mov	r23, r26
    2246:	89 2f       	mov	r24, r25
    2248:	95 2f       	mov	r25, r21
    224a:	0e 94 02 21 	call	0x4204	; 0x4204 <__mulsf3>
    224e:	bc 89       	ldd	r27, Y+20	; 0x14
    2250:	ad 89       	ldd	r26, Y+21	; 0x15
    2252:	ee 89       	ldd	r30, Y+22	; 0x16
    2254:	1f 89       	ldd	r17, Y+23	; 0x17
    2256:	2b 2f       	mov	r18, r27
    2258:	3a 2f       	mov	r19, r26
    225a:	4e 2f       	mov	r20, r30
    225c:	51 2f       	mov	r21, r17
    225e:	0e 94 50 1f 	call	0x3ea0	; 0x3ea0 <__addsf3>
    2262:	4b 01       	movw	r8, r22
    2264:	89 83       	std	Y+1, r24	; 0x01
    2266:	59 2e       	mov	r5, r25
    2268:	f8 e0       	ldi	r31, 0x08	; 8
    226a:	af 2e       	mov	r10, r31
    226c:	b1 2c       	mov	r11, r1
    226e:	00 e0       	ldi	r16, 0x00	; 0
    2270:	10 e0       	ldi	r17, 0x00	; 0
    2272:	a0 e4       	ldi	r26, 0x40	; 64
    2274:	ea 2e       	mov	r14, r26
    2276:	b0 ec       	ldi	r27, 0xC0	; 192
    2278:	fb 2e       	mov	r15, r27
    227a:	ed 8e       	std	Y+29, r14	; 0x1d
    227c:	fc 8e       	std	Y+28, r15	; 0x1c
    227e:	14 c0       	rjmp	.+40     	; 0x22a8 <effect_sphere.1499+0x17a>
    2280:	20 e0       	ldi	r18, 0x00	; 0
    2282:	30 e0       	ldi	r19, 0x00	; 0
    2284:	40 e8       	ldi	r20, 0x80	; 128
    2286:	5f e3       	ldi	r21, 0x3F	; 63
    2288:	fd 8d       	ldd	r31, Y+29	; 0x1d
    228a:	ec 8d       	ldd	r30, Y+28	; 0x1c
    228c:	60 2f       	mov	r22, r16
    228e:	71 2f       	mov	r23, r17
    2290:	8f 2f       	mov	r24, r31
    2292:	9e 2f       	mov	r25, r30
    2294:	0e 94 50 1f 	call	0x3ea0	; 0x3ea0 <__addsf3>
    2298:	8b 01       	movw	r16, r22
    229a:	8d 8f       	std	Y+29, r24	; 0x1d
    229c:	9c 8f       	std	Y+28, r25	; 0x1c
    229e:	f1 e0       	ldi	r31, 0x01	; 1
    22a0:	af 1a       	sub	r10, r31
    22a2:	b1 08       	sbc	r11, r1
    22a4:	09 f4       	brne	.+2      	; 0x22a8 <effect_sphere.1499+0x17a>
    22a6:	75 c0       	rjmp	.+234    	; 0x2392 <effect_sphere.1499+0x264>
    22a8:	9d 8d       	ldd	r25, Y+29	; 0x1d
    22aa:	8c 8d       	ldd	r24, Y+28	; 0x1c
    22ac:	20 2f       	mov	r18, r16
    22ae:	31 2f       	mov	r19, r17
    22b0:	49 2f       	mov	r20, r25
    22b2:	58 2f       	mov	r21, r24
    22b4:	fc 01       	movw	r30, r24
    22b6:	60 2f       	mov	r22, r16
    22b8:	71 2f       	mov	r23, r17
    22ba:	8f 2f       	mov	r24, r31
    22bc:	9e 2f       	mov	r25, r30
    22be:	0e 94 02 21 	call	0x4204	; 0x4204 <__mulsf3>
    22c2:	f9 80       	ldd	r15, Y+1	; 0x01
    22c4:	28 2d       	mov	r18, r8
    22c6:	39 2d       	mov	r19, r9
    22c8:	4f 2d       	mov	r20, r15
    22ca:	55 2d       	mov	r21, r5
    22cc:	0e 94 50 1f 	call	0x3ea0	; 0x3ea0 <__addsf3>
    22d0:	6b 01       	movw	r12, r22
    22d2:	7c 01       	movw	r14, r24
    22d4:	7a 81       	ldd	r23, Y+2	; 0x02
    22d6:	6b 81       	ldd	r22, Y+3	; 0x03
    22d8:	9c 81       	ldd	r25, Y+4	; 0x04
    22da:	8d 81       	ldd	r24, Y+5	; 0x05
    22dc:	27 2f       	mov	r18, r23
    22de:	36 2f       	mov	r19, r22
    22e0:	49 2f       	mov	r20, r25
    22e2:	58 2f       	mov	r21, r24
    22e4:	6c 2d       	mov	r22, r12
    22e6:	7d 2d       	mov	r23, r13
    22e8:	8e 2d       	mov	r24, r14
    22ea:	9f 2d       	mov	r25, r15
    22ec:	0e 94 fe 20 	call	0x41fc	; 0x41fc <__gesf2>
    22f0:	18 16       	cp	r1, r24
    22f2:	34 f6       	brge	.-116    	; 0x2280 <effect_sphere.1499+0x152>
    22f4:	20 e0       	ldi	r18, 0x00	; 0
    22f6:	30 e0       	ldi	r19, 0x00	; 0
    22f8:	40 e6       	ldi	r20, 0x60	; 96
    22fa:	51 e4       	ldi	r21, 0x41	; 65
    22fc:	ba 85       	ldd	r27, Y+10	; 0x0a
    22fe:	ab 85       	ldd	r26, Y+11	; 0x0b
    2300:	ec 85       	ldd	r30, Y+12	; 0x0c
    2302:	fd 85       	ldd	r31, Y+13	; 0x0d
    2304:	6b 2f       	mov	r22, r27
    2306:	7a 2f       	mov	r23, r26
    2308:	cf 01       	movw	r24, r30
    230a:	0e 94 02 21 	call	0x4204	; 0x4204 <__mulsf3>
    230e:	9b 01       	movw	r18, r22
    2310:	ac 01       	movw	r20, r24
    2312:	6c 2d       	mov	r22, r12
    2314:	7d 2d       	mov	r23, r13
    2316:	8e 2d       	mov	r24, r14
    2318:	9f 2d       	mov	r25, r15
    231a:	0e 94 b4 1f 	call	0x3f68	; 0x3f68 <__cmpsf2>
    231e:	87 ff       	sbrs	r24, 7
    2320:	af cf       	rjmp	.-162    	; 0x2280 <effect_sphere.1499+0x152>
    2322:	20 e0       	ldi	r18, 0x00	; 0
    2324:	30 e0       	ldi	r19, 0x00	; 0
    2326:	40 e4       	ldi	r20, 0x40	; 64
    2328:	50 e4       	ldi	r21, 0x40	; 64
    232a:	fd 8d       	ldd	r31, Y+29	; 0x1d
    232c:	ec 8d       	ldd	r30, Y+28	; 0x1c
    232e:	60 2f       	mov	r22, r16
    2330:	71 2f       	mov	r23, r17
    2332:	8f 2f       	mov	r24, r31
    2334:	9e 2f       	mov	r25, r30
    2336:	0e 94 50 1f 	call	0x3ea0	; 0x3ea0 <__addsf3>
    233a:	0e 94 20 20 	call	0x4040	; 0x4040 <__fixunssfsi>
    233e:	e6 2e       	mov	r14, r22
    2340:	20 e0       	ldi	r18, 0x00	; 0
    2342:	30 e0       	ldi	r19, 0x00	; 0
    2344:	40 e4       	ldi	r20, 0x40	; 64
    2346:	50 e4       	ldi	r21, 0x40	; 64
    2348:	be 81       	ldd	r27, Y+6	; 0x06
    234a:	af 81       	ldd	r26, Y+7	; 0x07
    234c:	f8 84       	ldd	r15, Y+8	; 0x08
    234e:	d9 84       	ldd	r13, Y+9	; 0x09
    2350:	6b 2f       	mov	r22, r27
    2352:	7a 2f       	mov	r23, r26
    2354:	8f 2d       	mov	r24, r15
    2356:	9d 2d       	mov	r25, r13
    2358:	0e 94 50 1f 	call	0x3ea0	; 0x3ea0 <__addsf3>
    235c:	0e 94 20 20 	call	0x4040	; 0x4040 <__fixunssfsi>
    2360:	f6 2e       	mov	r15, r22
    2362:	20 e0       	ldi	r18, 0x00	; 0
    2364:	30 e0       	ldi	r19, 0x00	; 0
    2366:	40 e4       	ldi	r20, 0x40	; 64
    2368:	50 e4       	ldi	r21, 0x40	; 64
    236a:	b8 89       	ldd	r27, Y+16	; 0x10
    236c:	a9 89       	ldd	r26, Y+17	; 0x11
    236e:	da 88       	ldd	r13, Y+18	; 0x12
    2370:	cb 88       	ldd	r12, Y+19	; 0x13
    2372:	6b 2f       	mov	r22, r27
    2374:	7a 2f       	mov	r23, r26
    2376:	8d 2d       	mov	r24, r13
    2378:	9c 2d       	mov	r25, r12
    237a:	0e 94 50 1f 	call	0x3ea0	; 0x3ea0 <__addsf3>
    237e:	0e 94 20 20 	call	0x4040	; 0x4040 <__fixunssfsi>
    2382:	86 2f       	mov	r24, r22
    2384:	2f ef       	ldi	r18, 0xFF	; 255
    2386:	3f e0       	ldi	r19, 0x0F	; 15
    2388:	4e 2d       	mov	r20, r14
    238a:	6f 2d       	mov	r22, r15
    238c:	0e 94 fe 07 	call	0xffc	; 0xffc <set_led_8_8_12>
    2390:	77 cf       	rjmp	.-274    	; 0x2280 <effect_sphere.1499+0x152>
    2392:	20 e0       	ldi	r18, 0x00	; 0
    2394:	30 e0       	ldi	r19, 0x00	; 0
    2396:	40 e8       	ldi	r20, 0x80	; 128
    2398:	5f e3       	ldi	r21, 0x3F	; 63
    239a:	be 81       	ldd	r27, Y+6	; 0x06
    239c:	af 81       	ldd	r26, Y+7	; 0x07
    239e:	e8 85       	ldd	r30, Y+8	; 0x08
    23a0:	19 85       	ldd	r17, Y+9	; 0x09
    23a2:	6b 2f       	mov	r22, r27
    23a4:	7a 2f       	mov	r23, r26
    23a6:	8e 2f       	mov	r24, r30
    23a8:	91 2f       	mov	r25, r17
    23aa:	0e 94 50 1f 	call	0x3ea0	; 0x3ea0 <__addsf3>
    23ae:	6e 83       	std	Y+6, r22	; 0x06
    23b0:	7f 83       	std	Y+7, r23	; 0x07
    23b2:	88 87       	std	Y+8, r24	; 0x08
    23b4:	99 87       	std	Y+9, r25	; 0x09
    23b6:	8e 85       	ldd	r24, Y+14	; 0x0e
    23b8:	9f 85       	ldd	r25, Y+15	; 0x0f
    23ba:	01 97       	sbiw	r24, 0x01	; 1
    23bc:	9f 87       	std	Y+15, r25	; 0x0f
    23be:	8e 87       	std	Y+14, r24	; 0x0e
    23c0:	89 2b       	or	r24, r25
    23c2:	09 f0       	breq	.+2      	; 0x23c6 <effect_sphere.1499+0x298>
    23c4:	35 cf       	rjmp	.-406    	; 0x2230 <effect_sphere.1499+0x102>
    23c6:	20 e0       	ldi	r18, 0x00	; 0
    23c8:	30 e0       	ldi	r19, 0x00	; 0
    23ca:	40 e8       	ldi	r20, 0x80	; 128
    23cc:	5f e3       	ldi	r21, 0x3F	; 63
    23ce:	b8 89       	ldd	r27, Y+16	; 0x10
    23d0:	a9 89       	ldd	r26, Y+17	; 0x11
    23d2:	ea 89       	ldd	r30, Y+18	; 0x12
    23d4:	1b 89       	ldd	r17, Y+19	; 0x13
    23d6:	6b 2f       	mov	r22, r27
    23d8:	7a 2f       	mov	r23, r26
    23da:	8e 2f       	mov	r24, r30
    23dc:	91 2f       	mov	r25, r17
    23de:	0e 94 50 1f 	call	0x3ea0	; 0x3ea0 <__addsf3>
    23e2:	68 8b       	std	Y+16, r22	; 0x10
    23e4:	79 8b       	std	Y+17, r23	; 0x11
    23e6:	8a 8b       	std	Y+18, r24	; 0x12
    23e8:	9b 8b       	std	Y+19, r25	; 0x13
    23ea:	e8 8d       	ldd	r30, Y+24	; 0x18
    23ec:	f9 8d       	ldd	r31, Y+25	; 0x19
    23ee:	31 97       	sbiw	r30, 0x01	; 1
    23f0:	f9 8f       	std	Y+25, r31	; 0x19
    23f2:	e8 8f       	std	Y+24, r30	; 0x18
    23f4:	ef 2b       	or	r30, r31
    23f6:	09 f0       	breq	.+2      	; 0x23fa <effect_sphere.1499+0x2cc>
    23f8:	fe ce       	rjmp	.-516    	; 0x21f6 <effect_sphere.1499+0xc8>
    23fa:	6d 96       	adiw	r28, 0x1d	; 29
    23fc:	0f b6       	in	r0, 0x3f	; 63
    23fe:	f8 94       	cli
    2400:	de bf       	out	0x3e, r29	; 62
    2402:	0f be       	out	0x3f, r0	; 63
    2404:	cd bf       	out	0x3d, r28	; 61
    2406:	df 91       	pop	r29
    2408:	cf 91       	pop	r28
    240a:	1f 91       	pop	r17
    240c:	0f 91       	pop	r16
    240e:	ff 90       	pop	r15
    2410:	ef 90       	pop	r14
    2412:	df 90       	pop	r13
    2414:	cf 90       	pop	r12
    2416:	bf 90       	pop	r11
    2418:	af 90       	pop	r10
    241a:	9f 90       	pop	r9
    241c:	8f 90       	pop	r8
    241e:	5f 90       	pop	r5
    2420:	08 95       	ret

00002422 <line.constprop.4>:
    2422:	5f 92       	push	r5
    2424:	8f 92       	push	r8
    2426:	9f 92       	push	r9
    2428:	af 92       	push	r10
    242a:	bf 92       	push	r11
    242c:	cf 92       	push	r12
    242e:	df 92       	push	r13
    2430:	ef 92       	push	r14
    2432:	ff 92       	push	r15
    2434:	0f 93       	push	r16
    2436:	1f 93       	push	r17
    2438:	cf 93       	push	r28
    243a:	df 93       	push	r29
    243c:	1f 92       	push	r1
    243e:	cd b7       	in	r28, 0x3d	; 61
    2440:	de b7       	in	r29, 0x3e	; 62
    2442:	18 2f       	mov	r17, r24
    2444:	f6 2e       	mov	r15, r22
    2446:	d4 2e       	mov	r13, r20
    2448:	a2 2e       	mov	r10, r18
    244a:	9e 2d       	mov	r25, r14
    244c:	32 2f       	mov	r19, r18
    244e:	38 1b       	sub	r19, r24
    2450:	20 2f       	mov	r18, r16
    2452:	26 1b       	sub	r18, r22
    2454:	8e 2d       	mov	r24, r14
    2456:	84 1b       	sub	r24, r20
    2458:	e3 2f       	mov	r30, r19
    245a:	ff 27       	eor	r31, r31
    245c:	e7 fd       	sbrc	r30, 7
    245e:	f0 95       	com	r31
    2460:	f7 fd       	sbrc	r31, 7
    2462:	c4 c0       	rjmp	.+392    	; 0x25ec <line.constprop.4+0x1ca>
    2464:	ce 2e       	mov	r12, r30
    2466:	cc 0c       	add	r12, r12
    2468:	e2 2f       	mov	r30, r18
    246a:	ff 27       	eor	r31, r31
    246c:	e7 fd       	sbrc	r30, 7
    246e:	f0 95       	com	r31
    2470:	f7 fd       	sbrc	r31, 7
    2472:	b8 c0       	rjmp	.+368    	; 0x25e4 <line.constprop.4+0x1c2>
    2474:	9e 2e       	mov	r9, r30
    2476:	99 0c       	add	r9, r9
    2478:	e8 2f       	mov	r30, r24
    247a:	ff 27       	eor	r31, r31
    247c:	e7 fd       	sbrc	r30, 7
    247e:	f0 95       	com	r31
    2480:	f7 fd       	sbrc	r31, 7
    2482:	ac c0       	rjmp	.+344    	; 0x25dc <line.constprop.4+0x1ba>
    2484:	be 2e       	mov	r11, r30
    2486:	bb 0c       	add	r11, r11
    2488:	37 fd       	sbrc	r19, 7
    248a:	a5 c0       	rjmp	.+330    	; 0x25d6 <line.constprop.4+0x1b4>
    248c:	88 24       	eor	r8, r8
    248e:	83 94       	inc	r8
    2490:	13 16       	cp	r1, r19
    2492:	0c f0       	brlt	.+2      	; 0x2496 <line.constprop.4+0x74>
    2494:	b9 c0       	rjmp	.+370    	; 0x2608 <line.constprop.4+0x1e6>
    2496:	27 fd       	sbrc	r18, 7
    2498:	9b c0       	rjmp	.+310    	; 0x25d0 <line.constprop.4+0x1ae>
    249a:	55 24       	eor	r5, r5
    249c:	53 94       	inc	r5
    249e:	12 16       	cp	r1, r18
    24a0:	0c f0       	brlt	.+2      	; 0x24a4 <line.constprop.4+0x82>
    24a2:	ae c0       	rjmp	.+348    	; 0x2600 <line.constprop.4+0x1de>
    24a4:	87 fd       	sbrc	r24, 7
    24a6:	91 c0       	rjmp	.+290    	; 0x25ca <line.constprop.4+0x1a8>
    24a8:	ee 24       	eor	r14, r14
    24aa:	e3 94       	inc	r14
    24ac:	18 16       	cp	r1, r24
    24ae:	0c f0       	brlt	.+2      	; 0x24b2 <line.constprop.4+0x90>
    24b0:	a9 c0       	rjmp	.+338    	; 0x2604 <line.constprop.4+0x1e2>
    24b2:	2c 2d       	mov	r18, r12
    24b4:	30 e0       	ldi	r19, 0x00	; 0
    24b6:	ab 2d       	mov	r26, r11
    24b8:	b9 14       	cp	r11, r9
    24ba:	08 f4       	brcc	.+2      	; 0x24be <line.constprop.4+0x9c>
    24bc:	a9 2d       	mov	r26, r9
    24be:	b0 e0       	ldi	r27, 0x00	; 0
    24c0:	2a 17       	cp	r18, r26
    24c2:	3b 07       	cpc	r19, r27
    24c4:	64 f1       	brlt	.+88     	; 0x251e <line.constprop.4+0xfc>
    24c6:	8c 2d       	mov	r24, r12
    24c8:	86 95       	lsr	r24
    24ca:	99 2d       	mov	r25, r9
    24cc:	98 1b       	sub	r25, r24
    24ce:	0b 2d       	mov	r16, r11
    24d0:	08 1b       	sub	r16, r24
    24d2:	0b c0       	rjmp	.+22     	; 0x24ea <line.constprop.4+0xc8>
    24d4:	97 fd       	sbrc	r25, 7
    24d6:	02 c0       	rjmp	.+4      	; 0x24dc <line.constprop.4+0xba>
    24d8:	f5 0c       	add	r15, r5
    24da:	9c 19       	sub	r25, r12
    24dc:	07 fd       	sbrc	r16, 7
    24de:	02 c0       	rjmp	.+4      	; 0x24e4 <line.constprop.4+0xc2>
    24e0:	de 0c       	add	r13, r14
    24e2:	0c 19       	sub	r16, r12
    24e4:	18 0d       	add	r17, r8
    24e6:	99 0d       	add	r25, r9
    24e8:	0b 0d       	add	r16, r11
    24ea:	2f ef       	ldi	r18, 0xFF	; 255
    24ec:	3f e0       	ldi	r19, 0x0F	; 15
    24ee:	4d 2d       	mov	r20, r13
    24f0:	6f 2d       	mov	r22, r15
    24f2:	81 2f       	mov	r24, r17
    24f4:	99 83       	std	Y+1, r25	; 0x01
    24f6:	0e 94 fe 07 	call	0xffc	; 0xffc <set_led_8_8_12>
    24fa:	99 81       	ldd	r25, Y+1	; 0x01
    24fc:	a1 12       	cpse	r10, r17
    24fe:	ea cf       	rjmp	.-44     	; 0x24d4 <line.constprop.4+0xb2>
    2500:	0f 90       	pop	r0
    2502:	df 91       	pop	r29
    2504:	cf 91       	pop	r28
    2506:	1f 91       	pop	r17
    2508:	0f 91       	pop	r16
    250a:	ff 90       	pop	r15
    250c:	ef 90       	pop	r14
    250e:	df 90       	pop	r13
    2510:	cf 90       	pop	r12
    2512:	bf 90       	pop	r11
    2514:	af 90       	pop	r10
    2516:	9f 90       	pop	r9
    2518:	8f 90       	pop	r8
    251a:	5f 90       	pop	r5
    251c:	08 95       	ret
    251e:	49 2d       	mov	r20, r9
    2520:	50 e0       	ldi	r21, 0x00	; 0
    2522:	2b 2d       	mov	r18, r11
    2524:	bc 14       	cp	r11, r12
    2526:	08 f4       	brcc	.+2      	; 0x252a <line.constprop.4+0x108>
    2528:	4a c0       	rjmp	.+148    	; 0x25be <line.constprop.4+0x19c>
    252a:	30 e0       	ldi	r19, 0x00	; 0
    252c:	42 17       	cp	r20, r18
    252e:	53 07       	cpc	r21, r19
    2530:	f4 f0       	brlt	.+60     	; 0x256e <line.constprop.4+0x14c>
    2532:	89 2d       	mov	r24, r9
    2534:	86 95       	lsr	r24
    2536:	9c 2d       	mov	r25, r12
    2538:	98 1b       	sub	r25, r24
    253a:	ab 2c       	mov	r10, r11
    253c:	a8 1a       	sub	r10, r24
    253e:	0b c0       	rjmp	.+22     	; 0x2556 <line.constprop.4+0x134>
    2540:	97 fd       	sbrc	r25, 7
    2542:	02 c0       	rjmp	.+4      	; 0x2548 <line.constprop.4+0x126>
    2544:	18 0d       	add	r17, r8
    2546:	99 19       	sub	r25, r9
    2548:	a7 fc       	sbrc	r10, 7
    254a:	02 c0       	rjmp	.+4      	; 0x2550 <line.constprop.4+0x12e>
    254c:	de 0c       	add	r13, r14
    254e:	a9 18       	sub	r10, r9
    2550:	f5 0c       	add	r15, r5
    2552:	9c 0d       	add	r25, r12
    2554:	ab 0c       	add	r10, r11
    2556:	2f ef       	ldi	r18, 0xFF	; 255
    2558:	3f e0       	ldi	r19, 0x0F	; 15
    255a:	4d 2d       	mov	r20, r13
    255c:	6f 2d       	mov	r22, r15
    255e:	81 2f       	mov	r24, r17
    2560:	99 83       	std	Y+1, r25	; 0x01
    2562:	0e 94 fe 07 	call	0xffc	; 0xffc <set_led_8_8_12>
    2566:	99 81       	ldd	r25, Y+1	; 0x01
    2568:	0f 11       	cpse	r16, r15
    256a:	ea cf       	rjmp	.-44     	; 0x2540 <line.constprop.4+0x11e>
    256c:	c9 cf       	rjmp	.-110    	; 0x2500 <line.constprop.4+0xde>
    256e:	4b 2d       	mov	r20, r11
    2570:	50 e0       	ldi	r21, 0x00	; 0
    2572:	29 2d       	mov	r18, r9
    2574:	9c 14       	cp	r9, r12
    2576:	f0 f1       	brcs	.+124    	; 0x25f4 <line.constprop.4+0x1d2>
    2578:	30 e0       	ldi	r19, 0x00	; 0
    257a:	42 17       	cp	r20, r18
    257c:	53 07       	cpc	r21, r19
    257e:	0c f4       	brge	.+2      	; 0x2582 <line.constprop.4+0x160>
    2580:	bf cf       	rjmp	.-130    	; 0x2500 <line.constprop.4+0xde>
    2582:	8b 2d       	mov	r24, r11
    2584:	86 95       	lsr	r24
    2586:	ac 2c       	mov	r10, r12
    2588:	a8 1a       	sub	r10, r24
    258a:	09 2d       	mov	r16, r9
    258c:	08 1b       	sub	r16, r24
    258e:	0b c0       	rjmp	.+22     	; 0x25a6 <line.constprop.4+0x184>
    2590:	a7 fc       	sbrc	r10, 7
    2592:	02 c0       	rjmp	.+4      	; 0x2598 <line.constprop.4+0x176>
    2594:	18 0d       	add	r17, r8
    2596:	ab 18       	sub	r10, r11
    2598:	07 fd       	sbrc	r16, 7
    259a:	02 c0       	rjmp	.+4      	; 0x25a0 <line.constprop.4+0x17e>
    259c:	f5 0c       	add	r15, r5
    259e:	0b 19       	sub	r16, r11
    25a0:	de 0c       	add	r13, r14
    25a2:	ac 0c       	add	r10, r12
    25a4:	09 0d       	add	r16, r9
    25a6:	2f ef       	ldi	r18, 0xFF	; 255
    25a8:	3f e0       	ldi	r19, 0x0F	; 15
    25aa:	4d 2d       	mov	r20, r13
    25ac:	6f 2d       	mov	r22, r15
    25ae:	81 2f       	mov	r24, r17
    25b0:	99 83       	std	Y+1, r25	; 0x01
    25b2:	0e 94 fe 07 	call	0xffc	; 0xffc <set_led_8_8_12>
    25b6:	99 81       	ldd	r25, Y+1	; 0x01
    25b8:	9d 11       	cpse	r25, r13
    25ba:	ea cf       	rjmp	.-44     	; 0x2590 <line.constprop.4+0x16e>
    25bc:	a1 cf       	rjmp	.-190    	; 0x2500 <line.constprop.4+0xde>
    25be:	2c 2d       	mov	r18, r12
    25c0:	30 e0       	ldi	r19, 0x00	; 0
    25c2:	42 17       	cp	r20, r18
    25c4:	53 07       	cpc	r21, r19
    25c6:	9c f2       	brlt	.-90     	; 0x256e <line.constprop.4+0x14c>
    25c8:	b4 cf       	rjmp	.-152    	; 0x2532 <line.constprop.4+0x110>
    25ca:	ee 24       	eor	r14, r14
    25cc:	ea 94       	dec	r14
    25ce:	71 cf       	rjmp	.-286    	; 0x24b2 <line.constprop.4+0x90>
    25d0:	55 24       	eor	r5, r5
    25d2:	5a 94       	dec	r5
    25d4:	67 cf       	rjmp	.-306    	; 0x24a4 <line.constprop.4+0x82>
    25d6:	88 24       	eor	r8, r8
    25d8:	8a 94       	dec	r8
    25da:	5d cf       	rjmp	.-326    	; 0x2496 <line.constprop.4+0x74>
    25dc:	f1 95       	neg	r31
    25de:	e1 95       	neg	r30
    25e0:	f1 09       	sbc	r31, r1
    25e2:	50 cf       	rjmp	.-352    	; 0x2484 <line.constprop.4+0x62>
    25e4:	f1 95       	neg	r31
    25e6:	e1 95       	neg	r30
    25e8:	f1 09       	sbc	r31, r1
    25ea:	44 cf       	rjmp	.-376    	; 0x2474 <line.constprop.4+0x52>
    25ec:	f1 95       	neg	r31
    25ee:	e1 95       	neg	r30
    25f0:	f1 09       	sbc	r31, r1
    25f2:	38 cf       	rjmp	.-400    	; 0x2464 <line.constprop.4+0x42>
    25f4:	2c 2d       	mov	r18, r12
    25f6:	30 e0       	ldi	r19, 0x00	; 0
    25f8:	42 17       	cp	r20, r18
    25fa:	53 07       	cpc	r21, r19
    25fc:	14 f6       	brge	.-124    	; 0x2582 <line.constprop.4+0x160>
    25fe:	80 cf       	rjmp	.-256    	; 0x2500 <line.constprop.4+0xde>
    2600:	51 2c       	mov	r5, r1
    2602:	50 cf       	rjmp	.-352    	; 0x24a4 <line.constprop.4+0x82>
    2604:	e1 2c       	mov	r14, r1
    2606:	55 cf       	rjmp	.-342    	; 0x24b2 <line.constprop.4+0x90>
    2608:	81 2c       	mov	r8, r1
    260a:	45 cf       	rjmp	.-374    	; 0x2496 <line.constprop.4+0x74>

0000260c <cube_shape.constprop.3>:
    260c:	cf 92       	push	r12
    260e:	df 92       	push	r13
    2610:	ef 92       	push	r14
    2612:	ff 92       	push	r15
    2614:	0f 93       	push	r16
    2616:	1f 93       	push	r17
    2618:	cf 93       	push	r28
    261a:	df 93       	push	r29
    261c:	c8 2f       	mov	r28, r24
    261e:	c6 2e       	mov	r12, r22
    2620:	d4 2e       	mov	r13, r20
    2622:	12 2f       	mov	r17, r18
    2624:	f0 2e       	mov	r15, r16
    2626:	de 2d       	mov	r29, r14
    2628:	06 2f       	mov	r16, r22
    262a:	28 2f       	mov	r18, r24
    262c:	0e 94 11 12 	call	0x2422	; 0x2422 <line.constprop.4>
    2630:	ed 2c       	mov	r14, r13
    2632:	21 2f       	mov	r18, r17
    2634:	4d 2d       	mov	r20, r13
    2636:	6c 2d       	mov	r22, r12
    2638:	8c 2f       	mov	r24, r28
    263a:	0e 94 11 12 	call	0x2422	; 0x2422 <line.constprop.4>
    263e:	0f 2d       	mov	r16, r15
    2640:	2c 2f       	mov	r18, r28
    2642:	4d 2d       	mov	r20, r13
    2644:	6c 2d       	mov	r22, r12
    2646:	8c 2f       	mov	r24, r28
    2648:	0e 94 11 12 	call	0x2422	; 0x2422 <line.constprop.4>
    264c:	21 2f       	mov	r18, r17
    264e:	4d 2f       	mov	r20, r29
    2650:	6f 2d       	mov	r22, r15
    2652:	81 2f       	mov	r24, r17
    2654:	0e 94 11 12 	call	0x2422	; 0x2422 <line.constprop.4>
    2658:	ed 2e       	mov	r14, r29
    265a:	0c 2d       	mov	r16, r12
    265c:	21 2f       	mov	r18, r17
    265e:	4d 2f       	mov	r20, r29
    2660:	6f 2d       	mov	r22, r15
    2662:	81 2f       	mov	r24, r17
    2664:	0e 94 11 12 	call	0x2422	; 0x2422 <line.constprop.4>
    2668:	0f 2d       	mov	r16, r15
    266a:	2c 2f       	mov	r18, r28
    266c:	4d 2f       	mov	r20, r29
    266e:	6f 2d       	mov	r22, r15
    2670:	81 2f       	mov	r24, r17
    2672:	0e 94 11 12 	call	0x2422	; 0x2422 <line.constprop.4>
    2676:	ed 2c       	mov	r14, r13
    2678:	21 2f       	mov	r18, r17
    267a:	4d 2d       	mov	r20, r13
    267c:	6f 2d       	mov	r22, r15
    267e:	8c 2f       	mov	r24, r28
    2680:	0e 94 11 12 	call	0x2422	; 0x2422 <line.constprop.4>
    2684:	ed 2e       	mov	r14, r29
    2686:	2c 2f       	mov	r18, r28
    2688:	4d 2d       	mov	r20, r13
    268a:	6f 2d       	mov	r22, r15
    268c:	8c 2f       	mov	r24, r28
    268e:	0e 94 11 12 	call	0x2422	; 0x2422 <line.constprop.4>
    2692:	0c 2d       	mov	r16, r12
    2694:	21 2f       	mov	r18, r17
    2696:	4d 2d       	mov	r20, r13
    2698:	6c 2d       	mov	r22, r12
    269a:	81 2f       	mov	r24, r17
    269c:	0e 94 11 12 	call	0x2422	; 0x2422 <line.constprop.4>
    26a0:	ed 2c       	mov	r14, r13
    26a2:	0f 2d       	mov	r16, r15
    26a4:	21 2f       	mov	r18, r17
    26a6:	4d 2d       	mov	r20, r13
    26a8:	6c 2d       	mov	r22, r12
    26aa:	81 2f       	mov	r24, r17
    26ac:	0e 94 11 12 	call	0x2422	; 0x2422 <line.constprop.4>
    26b0:	ed 2e       	mov	r14, r29
    26b2:	2c 2f       	mov	r18, r28
    26b4:	4d 2f       	mov	r20, r29
    26b6:	6c 2d       	mov	r22, r12
    26b8:	8c 2f       	mov	r24, r28
    26ba:	0e 94 11 12 	call	0x2422	; 0x2422 <line.constprop.4>
    26be:	0c 2f       	mov	r16, r28
    26c0:	21 2f       	mov	r18, r17
    26c2:	4d 2f       	mov	r20, r29
    26c4:	6c 2d       	mov	r22, r12
    26c6:	8c 2f       	mov	r24, r28
    26c8:	0e 94 11 12 	call	0x2422	; 0x2422 <line.constprop.4>
    26cc:	df 91       	pop	r29
    26ce:	cf 91       	pop	r28
    26d0:	1f 91       	pop	r17
    26d2:	0f 91       	pop	r16
    26d4:	ff 90       	pop	r15
    26d6:	ef 90       	pop	r14
    26d8:	df 90       	pop	r13
    26da:	cf 90       	pop	r12
    26dc:	08 95       	ret

000026de <effect_wireframe.1482>:
    26de:	cf 92       	push	r12
    26e0:	df 92       	push	r13
    26e2:	ef 92       	push	r14
    26e4:	0f 93       	push	r16
    26e6:	cf 93       	push	r28
    26e8:	df 93       	push	r29
    26ea:	1f 92       	push	r1
    26ec:	cd b7       	in	r28, 0x3d	; 61
    26ee:	de b7       	in	r29, 0x3e	; 62
    26f0:	20 91 25 01 	lds	r18, 0x0125
    26f4:	30 91 26 01 	lds	r19, 0x0126
    26f8:	36 95       	lsr	r19
    26fa:	27 95       	ror	r18
    26fc:	32 95       	swap	r19
    26fe:	22 95       	swap	r18
    2700:	2f 70       	andi	r18, 0x0F	; 15
    2702:	23 27       	eor	r18, r19
    2704:	3f 70       	andi	r19, 0x0F	; 15
    2706:	23 27       	eor	r18, r19
    2708:	f7 e0       	ldi	r31, 0x07	; 7
    270a:	cf 2e       	mov	r12, r31
    270c:	d1 2c       	mov	r13, r1
    270e:	c2 22       	and	r12, r18
    2710:	d3 22       	and	r13, r19
    2712:	20 95       	com	r18
    2714:	27 70       	andi	r18, 0x07	; 7
    2716:	29 83       	std	Y+1, r18	; 0x01
    2718:	0e 94 e5 09 	call	0x13ca	; 0x13ca <clear_buffer>
    271c:	29 81       	ldd	r18, Y+1	; 0x01
    271e:	e2 2e       	mov	r14, r18
    2720:	02 2f       	mov	r16, r18
    2722:	4c 2d       	mov	r20, r12
    2724:	6c 2d       	mov	r22, r12
    2726:	8c 2d       	mov	r24, r12
    2728:	0e 94 06 13 	call	0x260c	; 0x260c <cube_shape.constprop.3>
    272c:	0f 90       	pop	r0
    272e:	df 91       	pop	r29
    2730:	cf 91       	pop	r28
    2732:	0f 91       	pop	r16
    2734:	ef 90       	pop	r14
    2736:	df 90       	pop	r13
    2738:	cf 90       	pop	r12
    273a:	08 95       	ret

0000273c <init_cube.1484>:
    273c:	ef 92       	push	r14
    273e:	0f 93       	push	r16
    2740:	0e 94 e5 09 	call	0x13ca	; 0x13ca <clear_buffer>
    2744:	a7 e0       	ldi	r26, 0x07	; 7
    2746:	ea 2e       	mov	r14, r26
    2748:	07 e0       	ldi	r16, 0x07	; 7
    274a:	27 e0       	ldi	r18, 0x07	; 7
    274c:	40 e0       	ldi	r20, 0x00	; 0
    274e:	60 e0       	ldi	r22, 0x00	; 0
    2750:	80 e0       	ldi	r24, 0x00	; 0
    2752:	0e 94 06 13 	call	0x260c	; 0x260c <cube_shape.constprop.3>
    2756:	0f 91       	pop	r16
    2758:	ef 90       	pop	r14
    275a:	08 95       	ret

0000275c <init_line.1480>:
    275c:	ef 92       	push	r14
    275e:	0f 93       	push	r16
    2760:	0e 94 e5 09 	call	0x13ca	; 0x13ca <clear_buffer>
    2764:	b6 e0       	ldi	r27, 0x06	; 6
    2766:	eb 2e       	mov	r14, r27
    2768:	07 e0       	ldi	r16, 0x07	; 7
    276a:	24 e0       	ldi	r18, 0x04	; 4
    276c:	40 e0       	ldi	r20, 0x00	; 0
    276e:	62 e0       	ldi	r22, 0x02	; 2
    2770:	81 e0       	ldi	r24, 0x01	; 1
    2772:	0e 94 11 12 	call	0x2422	; 0x2422 <line.constprop.4>
    2776:	0f 91       	pop	r16
    2778:	ef 90       	pop	r14
    277a:	08 95       	ret

0000277c <effect_fish.1478>:
    277c:	0f 93       	push	r16
    277e:	1f 93       	push	r17
    2780:	0f ef       	ldi	r16, 0xFF	; 255
    2782:	1f e0       	ldi	r17, 0x0F	; 15
    2784:	25 e0       	ldi	r18, 0x05	; 5
    2786:	42 e0       	ldi	r20, 0x02	; 2
    2788:	62 e0       	ldi	r22, 0x02	; 2
    278a:	81 e0       	ldi	r24, 0x01	; 1
    278c:	0e 94 95 09 	call	0x132a	; 0x132a <set_row>
    2790:	2f ef       	ldi	r18, 0xFF	; 255
    2792:	3f e0       	ldi	r19, 0x0F	; 15
    2794:	41 e0       	ldi	r20, 0x01	; 1
    2796:	61 e0       	ldi	r22, 0x01	; 1
    2798:	82 e0       	ldi	r24, 0x02	; 2
    279a:	0e 94 fe 07 	call	0xffc	; 0xffc <set_led_8_8_12>
    279e:	25 e0       	ldi	r18, 0x05	; 5
    27a0:	43 e0       	ldi	r20, 0x03	; 3
    27a2:	61 e0       	ldi	r22, 0x01	; 1
    27a4:	82 e0       	ldi	r24, 0x02	; 2
    27a6:	0e 94 95 09 	call	0x132a	; 0x132a <set_row>
    27aa:	26 e0       	ldi	r18, 0x06	; 6
    27ac:	41 e0       	ldi	r20, 0x01	; 1
    27ae:	62 e0       	ldi	r22, 0x02	; 2
    27b0:	82 e0       	ldi	r24, 0x02	; 2
    27b2:	0e 94 95 09 	call	0x132a	; 0x132a <set_row>
    27b6:	24 e0       	ldi	r18, 0x04	; 4
    27b8:	43 e0       	ldi	r20, 0x03	; 3
    27ba:	63 e0       	ldi	r22, 0x03	; 3
    27bc:	82 e0       	ldi	r24, 0x02	; 2
    27be:	0e 94 95 09 	call	0x132a	; 0x132a <set_row>
    27c2:	2f ef       	ldi	r18, 0xFF	; 255
    27c4:	3f e0       	ldi	r19, 0x0F	; 15
    27c6:	43 e0       	ldi	r20, 0x03	; 3
    27c8:	61 e0       	ldi	r22, 0x01	; 1
    27ca:	82 e0       	ldi	r24, 0x02	; 2
    27cc:	0e 94 fe 07 	call	0xffc	; 0xffc <set_led_8_8_12>
    27d0:	25 e0       	ldi	r18, 0x05	; 5
    27d2:	42 e0       	ldi	r20, 0x02	; 2
    27d4:	62 e0       	ldi	r22, 0x02	; 2
    27d6:	83 e0       	ldi	r24, 0x03	; 3
    27d8:	0e 94 95 09 	call	0x132a	; 0x132a <set_row>
    27dc:	1f 91       	pop	r17
    27de:	0f 91       	pop	r16
    27e0:	08 95       	ret

000027e2 <clamp.constprop.6>:
    27e2:	88 30       	cpi	r24, 0x08	; 8
    27e4:	08 f0       	brcs	.+2      	; 0x27e8 <clamp.constprop.6+0x6>
    27e6:	87 e0       	ldi	r24, 0x07	; 7
    27e8:	08 95       	ret

000027ea <effect_lines.1533>:
    27ea:	8f 92       	push	r8
    27ec:	9f 92       	push	r9
    27ee:	af 92       	push	r10
    27f0:	bf 92       	push	r11
    27f2:	cf 92       	push	r12
    27f4:	df 92       	push	r13
    27f6:	ef 92       	push	r14
    27f8:	ff 92       	push	r15
    27fa:	0f 93       	push	r16
    27fc:	1f 93       	push	r17
    27fe:	cf 93       	push	r28
    2800:	df 93       	push	r29
    2802:	e0 91 25 01 	lds	r30, 0x0125
    2806:	f0 91 26 01 	lds	r31, 0x0126
    280a:	9f 01       	movw	r18, r30
    280c:	ad ec       	ldi	r26, 0xCD	; 205
    280e:	bc ec       	ldi	r27, 0xCC	; 204
    2810:	0e 94 e8 21 	call	0x43d0	; 0x43d0 <__umulhisi3>
    2814:	96 95       	lsr	r25
    2816:	87 95       	ror	r24
    2818:	96 95       	lsr	r25
    281a:	87 95       	ror	r24
    281c:	96 95       	lsr	r25
    281e:	87 95       	ror	r24
    2820:	ac 01       	movw	r20, r24
    2822:	44 0f       	add	r20, r20
    2824:	55 1f       	adc	r21, r21
    2826:	88 0f       	add	r24, r24
    2828:	99 1f       	adc	r25, r25
    282a:	88 0f       	add	r24, r24
    282c:	99 1f       	adc	r25, r25
    282e:	88 0f       	add	r24, r24
    2830:	99 1f       	adc	r25, r25
    2832:	48 0f       	add	r20, r24
    2834:	59 1f       	adc	r21, r25
    2836:	e4 17       	cp	r30, r20
    2838:	f5 07       	cpc	r31, r21
    283a:	a1 f5       	brne	.+104    	; 0x28a4 <effect_lines.1533+0xba>
    283c:	0e 94 aa 22 	call	0x4554	; 0x4554 <rand>
    2840:	7c 01       	movw	r14, r24
    2842:	0e 94 aa 22 	call	0x4554	; 0x4554 <rand>
    2846:	8c 01       	movw	r16, r24
    2848:	0e 94 aa 22 	call	0x4554	; 0x4554 <rand>
    284c:	5c 01       	movw	r10, r24
    284e:	0e 94 aa 22 	call	0x4554	; 0x4554 <rand>
    2852:	6c 01       	movw	r12, r24
    2854:	0e 94 aa 22 	call	0x4554	; 0x4554 <rand>
    2858:	ec 01       	movw	r28, r24
    285a:	0e 94 aa 22 	call	0x4554	; 0x4554 <rand>
    285e:	4c 01       	movw	r8, r24
    2860:	e7 e0       	ldi	r30, 0x07	; 7
    2862:	f0 e0       	ldi	r31, 0x00	; 0
    2864:	c7 01       	movw	r24, r14
    2866:	bf 01       	movw	r22, r30
    2868:	0e 94 18 22 	call	0x4430	; 0x4430 <__divmodhi4>
    286c:	e8 2e       	mov	r14, r24
    286e:	c8 01       	movw	r24, r16
    2870:	bf 01       	movw	r22, r30
    2872:	0e 94 18 22 	call	0x4430	; 0x4430 <__divmodhi4>
    2876:	08 2f       	mov	r16, r24
    2878:	c5 01       	movw	r24, r10
    287a:	bf 01       	movw	r22, r30
    287c:	0e 94 18 22 	call	0x4430	; 0x4430 <__divmodhi4>
    2880:	28 2f       	mov	r18, r24
    2882:	c6 01       	movw	r24, r12
    2884:	bf 01       	movw	r22, r30
    2886:	0e 94 18 22 	call	0x4430	; 0x4430 <__divmodhi4>
    288a:	48 2f       	mov	r20, r24
    288c:	ce 01       	movw	r24, r28
    288e:	bf 01       	movw	r22, r30
    2890:	0e 94 18 22 	call	0x4430	; 0x4430 <__divmodhi4>
    2894:	38 2f       	mov	r19, r24
    2896:	c4 01       	movw	r24, r8
    2898:	bf 01       	movw	r22, r30
    289a:	0e 94 18 22 	call	0x4430	; 0x4430 <__divmodhi4>
    289e:	63 2f       	mov	r22, r19
    28a0:	0e 94 11 12 	call	0x2422	; 0x2422 <line.constprop.4>
    28a4:	df 91       	pop	r29
    28a6:	cf 91       	pop	r28
    28a8:	1f 91       	pop	r17
    28aa:	0f 91       	pop	r16
    28ac:	ff 90       	pop	r15
    28ae:	ef 90       	pop	r14
    28b0:	df 90       	pop	r13
    28b2:	cf 90       	pop	r12
    28b4:	bf 90       	pop	r11
    28b6:	af 90       	pop	r10
    28b8:	9f 90       	pop	r9
    28ba:	8f 90       	pop	r8
    28bc:	08 95       	ret

000028be <effect_particles.1529>:
    28be:	df 92       	push	r13
    28c0:	ef 92       	push	r14
    28c2:	ff 92       	push	r15
    28c4:	0f 93       	push	r16
    28c6:	1f 93       	push	r17
    28c8:	cf 93       	push	r28
    28ca:	df 93       	push	r29
    28cc:	40 91 25 01 	lds	r20, 0x0125
    28d0:	50 91 26 01 	lds	r21, 0x0126
    28d4:	9a 01       	movw	r18, r20
    28d6:	36 95       	lsr	r19
    28d8:	27 95       	ror	r18
    28da:	ab e7       	ldi	r26, 0x7B	; 123
    28dc:	b4 e1       	ldi	r27, 0x14	; 20
    28de:	0e 94 e8 21 	call	0x43d0	; 0x43d0 <__umulhisi3>
    28e2:	96 95       	lsr	r25
    28e4:	87 95       	ror	r24
    28e6:	62 e3       	ldi	r22, 0x32	; 50
    28e8:	68 9f       	mul	r22, r24
    28ea:	90 01       	movw	r18, r0
    28ec:	69 9f       	mul	r22, r25
    28ee:	30 0d       	add	r19, r0
    28f0:	11 24       	eor	r1, r1
    28f2:	42 17       	cp	r20, r18
    28f4:	53 07       	cpc	r21, r19
    28f6:	41 f0       	breq	.+16     	; 0x2908 <effect_particles.1529+0x4a>
    28f8:	df 91       	pop	r29
    28fa:	cf 91       	pop	r28
    28fc:	1f 91       	pop	r17
    28fe:	0f 91       	pop	r16
    2900:	ff 90       	pop	r15
    2902:	ef 90       	pop	r14
    2904:	df 90       	pop	r13
    2906:	08 95       	ret
    2908:	0e 94 e5 09 	call	0x13ca	; 0x13ca <clear_buffer>
    290c:	00 e0       	ldi	r16, 0x00	; 0
    290e:	10 e0       	ldi	r17, 0x00	; 0
    2910:	e8 01       	movw	r28, r16
    2912:	cc 0f       	add	r28, r28
    2914:	dd 1f       	adc	r29, r29
    2916:	c0 0f       	add	r28, r16
    2918:	d1 1f       	adc	r29, r17
    291a:	c2 5d       	subi	r28, 0xD2	; 210
    291c:	db 4f       	sbci	r29, 0xFB	; 251
    291e:	d8 80       	ld	r13, Y
    2920:	e9 80       	ldd	r14, Y+1	; 0x01
    2922:	fa 80       	ldd	r15, Y+2	; 0x02
    2924:	2f ef       	ldi	r18, 0xFF	; 255
    2926:	3f e0       	ldi	r19, 0x0F	; 15
    2928:	4f 2d       	mov	r20, r15
    292a:	6e 2d       	mov	r22, r14
    292c:	8d 2d       	mov	r24, r13
    292e:	0e 94 fe 07 	call	0xffc	; 0xffc <set_led_8_8_12>
    2932:	0e 94 aa 22 	call	0x4554	; 0x4554 <rand>
    2936:	8d 2d       	mov	r24, r13
    2938:	81 50       	subi	r24, 0x01	; 1
    293a:	0e 94 f1 13 	call	0x27e2	; 0x27e2 <clamp.constprop.6>
    293e:	d8 2e       	mov	r13, r24
    2940:	0e 94 aa 22 	call	0x4554	; 0x4554 <rand>
    2944:	8e 2d       	mov	r24, r14
    2946:	81 50       	subi	r24, 0x01	; 1
    2948:	0e 94 f1 13 	call	0x27e2	; 0x27e2 <clamp.constprop.6>
    294c:	e8 2e       	mov	r14, r24
    294e:	0e 94 aa 22 	call	0x4554	; 0x4554 <rand>
    2952:	8f 2d       	mov	r24, r15
    2954:	81 50       	subi	r24, 0x01	; 1
    2956:	0e 94 f1 13 	call	0x27e2	; 0x27e2 <clamp.constprop.6>
    295a:	d8 82       	st	Y, r13
    295c:	e9 82       	std	Y+1, r14	; 0x01
    295e:	8a 83       	std	Y+2, r24	; 0x02
    2960:	0f 5f       	subi	r16, 0xFF	; 255
    2962:	1f 4f       	sbci	r17, 0xFF	; 255
    2964:	05 30       	cpi	r16, 0x05	; 5
    2966:	11 05       	cpc	r17, r1
    2968:	99 f6       	brne	.-90     	; 0x2910 <effect_particles.1529+0x52>
    296a:	df 91       	pop	r29
    296c:	cf 91       	pop	r28
    296e:	1f 91       	pop	r17
    2970:	0f 91       	pop	r16
    2972:	ff 90       	pop	r15
    2974:	ef 90       	pop	r14
    2976:	df 90       	pop	r13
    2978:	08 95       	ret

0000297a <set_leds.1423>:
    297a:	5f 92       	push	r5
    297c:	8f 92       	push	r8
    297e:	9f 92       	push	r9
    2980:	af 92       	push	r10
    2982:	bf 92       	push	r11
    2984:	cf 92       	push	r12
    2986:	df 92       	push	r13
    2988:	ef 92       	push	r14
    298a:	ff 92       	push	r15
    298c:	0f 93       	push	r16
    298e:	1f 93       	push	r17
    2990:	cf 93       	push	r28
    2992:	df 93       	push	r29
    2994:	a8 2e       	mov	r10, r24
    2996:	86 2e       	mov	r8, r22
    2998:	e4 2e       	mov	r14, r20
    299a:	c0 91 08 01 	lds	r28, 0x0108
    299e:	d0 91 09 01 	lds	r29, 0x0109
    29a2:	68 2f       	mov	r22, r24
    29a4:	61 50       	subi	r22, 0x01	; 1
    29a6:	1f ef       	ldi	r17, 0xFF	; 255
    29a8:	f1 2c       	mov	r15, r1
    29aa:	94 2e       	mov	r9, r20
    29ac:	9a 94       	dec	r9
    29ae:	58 2c       	mov	r5, r8
    29b0:	5a 94       	dec	r5
    29b2:	55 2d       	mov	r21, r5
    29b4:	4f ef       	ldi	r20, 0xFF	; 255
    29b6:	38 ef       	ldi	r19, 0xF8	; 248
    29b8:	b3 2e       	mov	r11, r19
    29ba:	b6 0e       	add	r11, r22
    29bc:	06 2f       	mov	r16, r22
    29be:	08 5f       	subi	r16, 0xF8	; 248
    29c0:	99 2d       	mov	r25, r9
    29c2:	8f ef       	ldi	r24, 0xFF	; 255
    29c4:	78 ef       	ldi	r23, 0xF8	; 248
    29c6:	d7 2e       	mov	r13, r23
    29c8:	d5 0e       	add	r13, r21
    29ca:	e8 e0       	ldi	r30, 0x08	; 8
    29cc:	ce 2e       	mov	r12, r30
    29ce:	c5 0e       	add	r12, r21
    29d0:	67 fd       	sbrc	r22, 7
    29d2:	84 c0       	rjmp	.+264    	; 0x2adc <set_leds.1423+0x162>
    29d4:	68 30       	cpi	r22, 0x08	; 8
    29d6:	0c f4       	brge	.+2      	; 0x29da <set_leds.1423+0x60>
    29d8:	7c c0       	rjmp	.+248    	; 0x2ad2 <set_leds.1423+0x158>
    29da:	7b 2d       	mov	r23, r11
    29dc:	57 fd       	sbrc	r21, 7
    29de:	7c c0       	rjmp	.+248    	; 0x2ad8 <set_leds.1423+0x15e>
    29e0:	58 30       	cpi	r21, 0x08	; 8
    29e2:	0c f4       	brge	.+2      	; 0x29e6 <set_leds.1423+0x6c>
    29e4:	70 c0       	rjmp	.+224    	; 0x2ac6 <set_leds.1423+0x14c>
    29e6:	2d 2d       	mov	r18, r13
    29e8:	e9 2f       	mov	r30, r25
    29ea:	97 fd       	sbrc	r25, 7
    29ec:	70 c0       	rjmp	.+224    	; 0x2ace <set_leds.1423+0x154>
    29ee:	98 30       	cpi	r25, 0x08	; 8
    29f0:	0c f0       	brlt	.+2      	; 0x29f4 <set_leds.1423+0x7a>
    29f2:	e8 50       	subi	r30, 0x08	; 8
    29f4:	30 e4       	ldi	r19, 0x40	; 64
    29f6:	e3 9f       	mul	r30, r19
    29f8:	f0 01       	movw	r30, r0
    29fa:	11 24       	eor	r1, r1
    29fc:	30 e0       	ldi	r19, 0x00	; 0
    29fe:	22 0f       	add	r18, r18
    2a00:	33 1f       	adc	r19, r19
    2a02:	22 0f       	add	r18, r18
    2a04:	33 1f       	adc	r19, r19
    2a06:	22 0f       	add	r18, r18
    2a08:	33 1f       	adc	r19, r19
    2a0a:	27 2b       	or	r18, r23
    2a0c:	e2 2b       	or	r30, r18
    2a0e:	f3 2b       	or	r31, r19
    2a10:	9f 01       	movw	r18, r30
    2a12:	22 0f       	add	r18, r18
    2a14:	33 1f       	adc	r19, r19
    2a16:	2e 0f       	add	r18, r30
    2a18:	3f 1f       	adc	r19, r31
    2a1a:	22 0f       	add	r18, r18
    2a1c:	33 1f       	adc	r19, r19
    2a1e:	22 0f       	add	r18, r18
    2a20:	33 1f       	adc	r19, r19
    2a22:	f9 01       	movw	r30, r18
    2a24:	f6 95       	lsr	r31
    2a26:	e7 95       	ror	r30
    2a28:	f6 95       	lsr	r31
    2a2a:	e7 95       	ror	r30
    2a2c:	f6 95       	lsr	r31
    2a2e:	e7 95       	ror	r30
    2a30:	ec 0f       	add	r30, r28
    2a32:	fd 1f       	adc	r31, r29
    2a34:	31 81       	ldd	r19, Z+1	; 0x01
    2a36:	b0 81       	ld	r27, Z
    2a38:	a0 e0       	ldi	r26, 0x00	; 0
    2a3a:	fd 01       	movw	r30, r26
    2a3c:	e3 2b       	or	r30, r19
    2a3e:	22 fd       	sbrc	r18, 2
    2a40:	3f c0       	rjmp	.+126    	; 0x2ac0 <set_leds.1423+0x146>
    2a42:	9f 01       	movw	r18, r30
    2a44:	32 95       	swap	r19
    2a46:	22 95       	swap	r18
    2a48:	2f 70       	andi	r18, 0x0F	; 15
    2a4a:	23 27       	eor	r18, r19
    2a4c:	3f 70       	andi	r19, 0x0F	; 15
    2a4e:	23 27       	eor	r18, r19
    2a50:	71 e0       	ldi	r23, 0x01	; 1
    2a52:	23 2b       	or	r18, r19
    2a54:	09 f4       	brne	.+2      	; 0x2a58 <set_leds.1423+0xde>
    2a56:	70 e0       	ldi	r23, 0x00	; 0
    2a58:	f7 0e       	add	r15, r23
    2a5a:	8f 5f       	subi	r24, 0xFF	; 255
    2a5c:	9f 5f       	subi	r25, 0xFF	; 255
    2a5e:	82 30       	cpi	r24, 0x02	; 2
    2a60:	09 f0       	breq	.+2      	; 0x2a64 <set_leds.1423+0xea>
    2a62:	b6 cf       	rjmp	.-148    	; 0x29d0 <set_leds.1423+0x56>
    2a64:	4f 5f       	subi	r20, 0xFF	; 255
    2a66:	5f 5f       	subi	r21, 0xFF	; 255
    2a68:	42 30       	cpi	r20, 0x02	; 2
    2a6a:	09 f0       	breq	.+2      	; 0x2a6e <set_leds.1423+0xf4>
    2a6c:	a9 cf       	rjmp	.-174    	; 0x29c0 <set_leds.1423+0x46>
    2a6e:	1f 5f       	subi	r17, 0xFF	; 255
    2a70:	6f 5f       	subi	r22, 0xFF	; 255
    2a72:	12 30       	cpi	r17, 0x02	; 2
    2a74:	09 f0       	breq	.+2      	; 0x2a78 <set_leds.1423+0xfe>
    2a76:	9d cf       	rjmp	.-198    	; 0x29b2 <set_leds.1423+0x38>
    2a78:	8f 2d       	mov	r24, r15
    2a7a:	86 50       	subi	r24, 0x06	; 6
    2a7c:	8a 30       	cpi	r24, 0x0A	; 10
    2a7e:	40 f0       	brcs	.+16     	; 0x2a90 <set_leds.1423+0x116>
    2a80:	0e 94 aa 22 	call	0x4554	; 0x4554 <rand>
    2a84:	6a e0       	ldi	r22, 0x0A	; 10
    2a86:	70 e0       	ldi	r23, 0x00	; 0
    2a88:	0e 94 18 22 	call	0x4430	; 0x4430 <__divmodhi4>
    2a8c:	89 30       	cpi	r24, 0x09	; 9
    2a8e:	40 f1       	brcs	.+80     	; 0x2ae0 <set_leds.1423+0x166>
    2a90:	2f ef       	ldi	r18, 0xFF	; 255
    2a92:	3f e0       	ldi	r19, 0x0F	; 15
    2a94:	4e 2d       	mov	r20, r14
    2a96:	68 2d       	mov	r22, r8
    2a98:	8a 2d       	mov	r24, r10
    2a9a:	0e 94 fe 07 	call	0xffc	; 0xffc <set_led_8_8_12>
    2a9e:	81 e0       	ldi	r24, 0x01	; 1
    2aa0:	80 93 2e 04 	sts	0x042E, r24
    2aa4:	df 91       	pop	r29
    2aa6:	cf 91       	pop	r28
    2aa8:	1f 91       	pop	r17
    2aaa:	0f 91       	pop	r16
    2aac:	ff 90       	pop	r15
    2aae:	ef 90       	pop	r14
    2ab0:	df 90       	pop	r13
    2ab2:	cf 90       	pop	r12
    2ab4:	bf 90       	pop	r11
    2ab6:	af 90       	pop	r10
    2ab8:	9f 90       	pop	r9
    2aba:	8f 90       	pop	r8
    2abc:	5f 90       	pop	r5
    2abe:	08 95       	ret
    2ac0:	9f 01       	movw	r18, r30
    2ac2:	3f 70       	andi	r19, 0x0F	; 15
    2ac4:	c5 cf       	rjmp	.-118    	; 0x2a50 <set_leds.1423+0xd6>
    2ac6:	25 2f       	mov	r18, r21
    2ac8:	e9 2f       	mov	r30, r25
    2aca:	97 ff       	sbrs	r25, 7
    2acc:	90 cf       	rjmp	.-224    	; 0x29ee <set_leds.1423+0x74>
    2ace:	e8 5f       	subi	r30, 0xF8	; 248
    2ad0:	91 cf       	rjmp	.-222    	; 0x29f4 <set_leds.1423+0x7a>
    2ad2:	76 2f       	mov	r23, r22
    2ad4:	57 ff       	sbrs	r21, 7
    2ad6:	84 cf       	rjmp	.-248    	; 0x29e0 <set_leds.1423+0x66>
    2ad8:	2c 2d       	mov	r18, r12
    2ada:	86 cf       	rjmp	.-244    	; 0x29e8 <set_leds.1423+0x6e>
    2adc:	70 2f       	mov	r23, r16
    2ade:	7e cf       	rjmp	.-260    	; 0x29dc <set_leds.1423+0x62>
    2ae0:	20 e0       	ldi	r18, 0x00	; 0
    2ae2:	30 e0       	ldi	r19, 0x00	; 0
    2ae4:	4e 2d       	mov	r20, r14
    2ae6:	68 2d       	mov	r22, r8
    2ae8:	8a 2d       	mov	r24, r10
    2aea:	df 91       	pop	r29
    2aec:	cf 91       	pop	r28
    2aee:	1f 91       	pop	r17
    2af0:	0f 91       	pop	r16
    2af2:	ff 90       	pop	r15
    2af4:	ef 90       	pop	r14
    2af6:	df 90       	pop	r13
    2af8:	cf 90       	pop	r12
    2afa:	bf 90       	pop	r11
    2afc:	af 90       	pop	r10
    2afe:	9f 90       	pop	r9
    2b00:	8f 90       	pop	r8
    2b02:	5f 90       	pop	r5
    2b04:	0c 94 fe 07 	jmp	0xffc	; 0xffc <set_led_8_8_12>

00002b08 <effect_brownian.1476>:
    2b08:	1f 93       	push	r17
    2b0a:	cf 93       	push	r28
    2b0c:	df 93       	push	r29
    2b0e:	2f ef       	ldi	r18, 0xFF	; 255
    2b10:	3f e0       	ldi	r19, 0x0F	; 15
    2b12:	40 91 30 04 	lds	r20, 0x0430
    2b16:	60 91 2f 04 	lds	r22, 0x042F
    2b1a:	80 91 2e 04 	lds	r24, 0x042E
    2b1e:	0e 94 fe 07 	call	0xffc	; 0xffc <set_led_8_8_12>
    2b22:	c0 91 2e 04 	lds	r28, 0x042E
    2b26:	0e 94 aa 22 	call	0x4554	; 0x4554 <rand>
    2b2a:	c2 50       	subi	r28, 0x02	; 2
    2b2c:	81 70       	andi	r24, 0x01	; 1
    2b2e:	90 78       	andi	r25, 0x80	; 128
    2b30:	97 fd       	sbrc	r25, 7
    2b32:	27 c0       	rjmp	.+78     	; 0x2b82 <effect_brownian.1476+0x7a>
    2b34:	8c 0f       	add	r24, r28
    2b36:	0e 94 f1 13 	call	0x27e2	; 0x27e2 <clamp.constprop.6>
    2b3a:	d8 2f       	mov	r29, r24
    2b3c:	c0 91 2f 04 	lds	r28, 0x042F
    2b40:	0e 94 aa 22 	call	0x4554	; 0x4554 <rand>
    2b44:	c2 50       	subi	r28, 0x02	; 2
    2b46:	81 70       	andi	r24, 0x01	; 1
    2b48:	90 78       	andi	r25, 0x80	; 128
    2b4a:	97 fd       	sbrc	r25, 7
    2b4c:	24 c0       	rjmp	.+72     	; 0x2b96 <effect_brownian.1476+0x8e>
    2b4e:	8c 0f       	add	r24, r28
    2b50:	0e 94 f1 13 	call	0x27e2	; 0x27e2 <clamp.constprop.6>
    2b54:	c8 2f       	mov	r28, r24
    2b56:	10 91 30 04 	lds	r17, 0x0430
    2b5a:	0e 94 aa 22 	call	0x4554	; 0x4554 <rand>
    2b5e:	12 50       	subi	r17, 0x02	; 2
    2b60:	81 70       	andi	r24, 0x01	; 1
    2b62:	90 78       	andi	r25, 0x80	; 128
    2b64:	97 fd       	sbrc	r25, 7
    2b66:	12 c0       	rjmp	.+36     	; 0x2b8c <effect_brownian.1476+0x84>
    2b68:	81 0f       	add	r24, r17
    2b6a:	0e 94 f1 13 	call	0x27e2	; 0x27e2 <clamp.constprop.6>
    2b6e:	d0 93 2e 04 	sts	0x042E, r29
    2b72:	c0 93 2f 04 	sts	0x042F, r28
    2b76:	80 93 30 04 	sts	0x0430, r24
    2b7a:	df 91       	pop	r29
    2b7c:	cf 91       	pop	r28
    2b7e:	1f 91       	pop	r17
    2b80:	08 95       	ret
    2b82:	01 97       	sbiw	r24, 0x01	; 1
    2b84:	8e 6f       	ori	r24, 0xFE	; 254
    2b86:	9f 6f       	ori	r25, 0xFF	; 255
    2b88:	01 96       	adiw	r24, 0x01	; 1
    2b8a:	d4 cf       	rjmp	.-88     	; 0x2b34 <effect_brownian.1476+0x2c>
    2b8c:	01 97       	sbiw	r24, 0x01	; 1
    2b8e:	8e 6f       	ori	r24, 0xFE	; 254
    2b90:	9f 6f       	ori	r25, 0xFF	; 255
    2b92:	01 96       	adiw	r24, 0x01	; 1
    2b94:	e9 cf       	rjmp	.-46     	; 0x2b68 <effect_brownian.1476+0x60>
    2b96:	01 97       	sbiw	r24, 0x01	; 1
    2b98:	8e 6f       	ori	r24, 0xFE	; 254
    2b9a:	9f 6f       	ori	r25, 0xFF	; 255
    2b9c:	01 96       	adiw	r24, 0x01	; 1
    2b9e:	d7 cf       	rjmp	.-82     	; 0x2b4e <effect_brownian.1476+0x46>

00002ba0 <init_matrix.1474>:
    2ba0:	ef 92       	push	r14
    2ba2:	ff 92       	push	r15
    2ba4:	0f 93       	push	r16
    2ba6:	1f 93       	push	r17
    2ba8:	cf 93       	push	r28
    2baa:	df 93       	push	r29
    2bac:	c0 e3       	ldi	r28, 0x30	; 48
    2bae:	d4 e0       	ldi	r29, 0x04	; 4
    2bb0:	13 c0       	rjmp	.+38     	; 0x2bd8 <init_matrix.1474+0x38>
    2bb2:	40 83       	st	Z, r20
    2bb4:	fe 01       	movw	r30, r28
    2bb6:	31 97       	sbiw	r30, 0x01	; 1
    2bb8:	98 01       	movw	r18, r16
    2bba:	27 70       	andi	r18, 0x07	; 7
    2bbc:	30 78       	andi	r19, 0x80	; 128
    2bbe:	37 fd       	sbrc	r19, 7
    2bc0:	28 c0       	rjmp	.+80     	; 0x2c12 <init_matrix.1474+0x72>
    2bc2:	20 83       	st	Z, r18
    2bc4:	87 70       	andi	r24, 0x07	; 7
    2bc6:	90 78       	andi	r25, 0x80	; 128
    2bc8:	97 fd       	sbrc	r25, 7
    2bca:	2e c0       	rjmp	.+92     	; 0x2c28 <init_matrix.1474+0x88>
    2bcc:	88 83       	st	Y, r24
    2bce:	23 96       	adiw	r28, 0x03	; 3
    2bd0:	84 e0       	ldi	r24, 0x04	; 4
    2bd2:	ce 34       	cpi	r28, 0x4E	; 78
    2bd4:	d8 07       	cpc	r29, r24
    2bd6:	91 f1       	breq	.+100    	; 0x2c3c <init_matrix.1474+0x9c>
    2bd8:	0e 94 aa 22 	call	0x4554	; 0x4554 <rand>
    2bdc:	7c 01       	movw	r14, r24
    2bde:	0e 94 aa 22 	call	0x4554	; 0x4554 <rand>
    2be2:	8c 01       	movw	r16, r24
    2be4:	0e 94 aa 22 	call	0x4554	; 0x4554 <rand>
    2be8:	fe 01       	movw	r30, r28
    2bea:	32 97       	sbiw	r30, 0x02	; 2
    2bec:	a7 01       	movw	r20, r14
    2bee:	47 70       	andi	r20, 0x07	; 7
    2bf0:	50 78       	andi	r21, 0x80	; 128
    2bf2:	57 ff       	sbrs	r21, 7
    2bf4:	de cf       	rjmp	.-68     	; 0x2bb2 <init_matrix.1474+0x12>
    2bf6:	41 50       	subi	r20, 0x01	; 1
    2bf8:	51 09       	sbc	r21, r1
    2bfa:	48 6f       	ori	r20, 0xF8	; 248
    2bfc:	5f 6f       	ori	r21, 0xFF	; 255
    2bfe:	4f 5f       	subi	r20, 0xFF	; 255
    2c00:	5f 4f       	sbci	r21, 0xFF	; 255
    2c02:	40 83       	st	Z, r20
    2c04:	fe 01       	movw	r30, r28
    2c06:	31 97       	sbiw	r30, 0x01	; 1
    2c08:	98 01       	movw	r18, r16
    2c0a:	27 70       	andi	r18, 0x07	; 7
    2c0c:	30 78       	andi	r19, 0x80	; 128
    2c0e:	37 ff       	sbrs	r19, 7
    2c10:	d8 cf       	rjmp	.-80     	; 0x2bc2 <init_matrix.1474+0x22>
    2c12:	21 50       	subi	r18, 0x01	; 1
    2c14:	31 09       	sbc	r19, r1
    2c16:	28 6f       	ori	r18, 0xF8	; 248
    2c18:	3f 6f       	ori	r19, 0xFF	; 255
    2c1a:	2f 5f       	subi	r18, 0xFF	; 255
    2c1c:	3f 4f       	sbci	r19, 0xFF	; 255
    2c1e:	20 83       	st	Z, r18
    2c20:	87 70       	andi	r24, 0x07	; 7
    2c22:	90 78       	andi	r25, 0x80	; 128
    2c24:	97 ff       	sbrs	r25, 7
    2c26:	d2 cf       	rjmp	.-92     	; 0x2bcc <init_matrix.1474+0x2c>
    2c28:	01 97       	sbiw	r24, 0x01	; 1
    2c2a:	88 6f       	ori	r24, 0xF8	; 248
    2c2c:	9f 6f       	ori	r25, 0xFF	; 255
    2c2e:	01 96       	adiw	r24, 0x01	; 1
    2c30:	88 83       	st	Y, r24
    2c32:	23 96       	adiw	r28, 0x03	; 3
    2c34:	84 e0       	ldi	r24, 0x04	; 4
    2c36:	ce 34       	cpi	r28, 0x4E	; 78
    2c38:	d8 07       	cpc	r29, r24
    2c3a:	71 f6       	brne	.-100    	; 0x2bd8 <init_matrix.1474+0x38>
    2c3c:	df 91       	pop	r29
    2c3e:	cf 91       	pop	r28
    2c40:	1f 91       	pop	r17
    2c42:	0f 91       	pop	r16
    2c44:	ff 90       	pop	r15
    2c46:	ef 90       	pop	r14
    2c48:	0c 94 e5 09 	jmp	0x13ca	; 0x13ca <clear_buffer>

00002c4c <effect_finite_worm.1472>:
    2c4c:	0f 93       	push	r16
    2c4e:	1f 93       	push	r17
    2c50:	cf 93       	push	r28
    2c52:	df 93       	push	r29
    2c54:	00 d0       	rcall	.+0      	; 0x2c56 <effect_finite_worm.1472+0xa>
    2c56:	00 d0       	rcall	.+0      	; 0x2c58 <effect_finite_worm.1472+0xc>
    2c58:	00 d0       	rcall	.+0      	; 0x2c5a <effect_finite_worm.1472+0xe>
    2c5a:	cd b7       	in	r28, 0x3d	; 61
    2c5c:	de b7       	in	r29, 0x3e	; 62
    2c5e:	0e 94 e5 09 	call	0x13ca	; 0x13ca <clear_buffer>
    2c62:	2f ef       	ldi	r18, 0xFF	; 255
    2c64:	3f e0       	ldi	r19, 0x0F	; 15
    2c66:	40 91 32 04 	lds	r20, 0x0432
    2c6a:	60 91 30 04 	lds	r22, 0x0430
    2c6e:	80 91 2e 04 	lds	r24, 0x042E
    2c72:	0e 94 fe 07 	call	0xffc	; 0xffc <set_led_8_8_12>
    2c76:	80 91 37 04 	lds	r24, 0x0437
    2c7a:	90 91 38 04 	lds	r25, 0x0438
    2c7e:	0a 97       	sbiw	r24, 0x0a	; 10
    2c80:	09 f4       	brne	.+2      	; 0x2c84 <effect_finite_worm.1472+0x38>
    2c82:	48 c0       	rjmp	.+144    	; 0x2d14 <effect_finite_worm.1472+0xc8>
    2c84:	80 91 2e 04 	lds	r24, 0x042E
    2c88:	90 91 2f 04 	lds	r25, 0x042F
    2c8c:	9a 83       	std	Y+2, r25	; 0x02
    2c8e:	89 83       	std	Y+1, r24	; 0x01
    2c90:	80 91 30 04 	lds	r24, 0x0430
    2c94:	90 91 31 04 	lds	r25, 0x0431
    2c98:	9c 83       	std	Y+4, r25	; 0x04
    2c9a:	8b 83       	std	Y+3, r24	; 0x03
    2c9c:	80 91 32 04 	lds	r24, 0x0432
    2ca0:	90 91 33 04 	lds	r25, 0x0433
    2ca4:	9e 83       	std	Y+6, r25	; 0x06
    2ca6:	8d 83       	std	Y+5, r24	; 0x05
    2ca8:	10 91 55 04 	lds	r17, 0x0455
    2cac:	11 50       	subi	r17, 0x01	; 1
    2cae:	0a e0       	ldi	r16, 0x0A	; 10
    2cb0:	2b c0       	rjmp	.+86     	; 0x2d08 <effect_finite_worm.1472+0xbc>
    2cb2:	81 2f       	mov	r24, r17
    2cb4:	99 27       	eor	r25, r25
    2cb6:	87 fd       	sbrc	r24, 7
    2cb8:	90 95       	com	r25
    2cba:	11 50       	subi	r17, 0x01	; 1
    2cbc:	fc 01       	movw	r30, r24
    2cbe:	ee 0f       	add	r30, r30
    2cc0:	ff 1f       	adc	r31, r31
    2cc2:	e2 5d       	subi	r30, 0xD2	; 210
    2cc4:	fb 4f       	sbci	r31, 0xFB	; 251
    2cc6:	01 84       	ldd	r0, Z+9	; 0x09
    2cc8:	f2 85       	ldd	r31, Z+10	; 0x0a
    2cca:	e0 2d       	mov	r30, r0
    2ccc:	ee 0f       	add	r30, r30
    2cce:	ff 1f       	adc	r31, r31
    2cd0:	21 e0       	ldi	r18, 0x01	; 1
    2cd2:	30 e0       	ldi	r19, 0x00	; 0
    2cd4:	2c 0f       	add	r18, r28
    2cd6:	3d 1f       	adc	r19, r29
    2cd8:	e2 0f       	add	r30, r18
    2cda:	f3 1f       	adc	r31, r19
    2cdc:	dc 01       	movw	r26, r24
    2cde:	a2 5d       	subi	r26, 0xD2	; 210
    2ce0:	bb 4f       	sbci	r27, 0xFB	; 251
    2ce2:	5d 96       	adiw	r26, 0x1d	; 29
    2ce4:	2c 91       	ld	r18, X
    2ce6:	80 81       	ld	r24, Z
    2ce8:	91 81       	ldd	r25, Z+1	; 0x01
    2cea:	82 1b       	sub	r24, r18
    2cec:	91 09       	sbc	r25, r1
    2cee:	27 fd       	sbrc	r18, 7
    2cf0:	93 95       	inc	r25
    2cf2:	91 83       	std	Z+1, r25	; 0x01
    2cf4:	80 83       	st	Z, r24
    2cf6:	2f ef       	ldi	r18, 0xFF	; 255
    2cf8:	3f e0       	ldi	r19, 0x0F	; 15
    2cfa:	4d 81       	ldd	r20, Y+5	; 0x05
    2cfc:	6b 81       	ldd	r22, Y+3	; 0x03
    2cfe:	89 81       	ldd	r24, Y+1	; 0x01
    2d00:	0e 94 fe 07 	call	0xffc	; 0xffc <set_led_8_8_12>
    2d04:	01 50       	subi	r16, 0x01	; 1
    2d06:	31 f0       	breq	.+12     	; 0x2d14 <effect_finite_worm.1472+0xc8>
    2d08:	1f 3f       	cpi	r17, 0xFF	; 255
    2d0a:	99 f6       	brne	.-90     	; 0x2cb2 <effect_finite_worm.1472+0x66>
    2d0c:	18 e0       	ldi	r17, 0x08	; 8
    2d0e:	89 e0       	ldi	r24, 0x09	; 9
    2d10:	90 e0       	ldi	r25, 0x00	; 0
    2d12:	d4 cf       	rjmp	.-88     	; 0x2cbc <effect_finite_worm.1472+0x70>
    2d14:	80 91 34 04 	lds	r24, 0x0434
    2d18:	90 91 35 04 	lds	r25, 0x0435
    2d1c:	40 91 36 04 	lds	r20, 0x0436
    2d20:	fc 01       	movw	r30, r24
    2d22:	ee 0f       	add	r30, r30
    2d24:	ff 1f       	adc	r31, r31
    2d26:	e2 5d       	subi	r30, 0xD2	; 210
    2d28:	fb 4f       	sbci	r31, 0xFB	; 251
    2d2a:	20 81       	ld	r18, Z
    2d2c:	31 81       	ldd	r19, Z+1	; 0x01
    2d2e:	24 0f       	add	r18, r20
    2d30:	31 1d       	adc	r19, r1
    2d32:	47 fd       	sbrc	r20, 7
    2d34:	3a 95       	dec	r19
    2d36:	28 30       	cpi	r18, 0x08	; 8
    2d38:	31 05       	cpc	r19, r1
    2d3a:	e8 f1       	brcs	.+122    	; 0x2db6 <effect_finite_worm.1472+0x16a>
    2d3c:	01 96       	adiw	r24, 0x01	; 1
    2d3e:	83 30       	cpi	r24, 0x03	; 3
    2d40:	91 05       	cpc	r25, r1
    2d42:	90 f5       	brcc	.+100    	; 0x2da8 <effect_finite_worm.1472+0x15c>
    2d44:	90 93 35 04 	sts	0x0435, r25
    2d48:	80 93 34 04 	sts	0x0434, r24
    2d4c:	41 95       	neg	r20
    2d4e:	40 93 36 04 	sts	0x0436, r20
    2d52:	50 91 55 04 	lds	r21, 0x0455
    2d56:	25 2f       	mov	r18, r21
    2d58:	30 e0       	ldi	r19, 0x00	; 0
    2d5a:	f9 01       	movw	r30, r18
    2d5c:	ee 0f       	add	r30, r30
    2d5e:	ff 1f       	adc	r31, r31
    2d60:	e2 5d       	subi	r30, 0xD2	; 210
    2d62:	fb 4f       	sbci	r31, 0xFB	; 251
    2d64:	92 87       	std	Z+10, r25	; 0x0a
    2d66:	81 87       	std	Z+9, r24	; 0x09
    2d68:	f9 01       	movw	r30, r18
    2d6a:	e2 5d       	subi	r30, 0xD2	; 210
    2d6c:	fb 4f       	sbci	r31, 0xFB	; 251
    2d6e:	45 8f       	std	Z+29, r20	; 0x1d
    2d70:	59 30       	cpi	r21, 0x09	; 9
    2d72:	e8 f0       	brcs	.+58     	; 0x2dae <effect_finite_worm.1472+0x162>
    2d74:	10 92 55 04 	sts	0x0455, r1
    2d78:	fc 01       	movw	r30, r24
    2d7a:	ee 0f       	add	r30, r30
    2d7c:	ff 1f       	adc	r31, r31
    2d7e:	e2 5d       	subi	r30, 0xD2	; 210
    2d80:	fb 4f       	sbci	r31, 0xFB	; 251
    2d82:	80 81       	ld	r24, Z
    2d84:	91 81       	ldd	r25, Z+1	; 0x01
    2d86:	84 0f       	add	r24, r20
    2d88:	91 1d       	adc	r25, r1
    2d8a:	47 fd       	sbrc	r20, 7
    2d8c:	9a 95       	dec	r25
    2d8e:	91 83       	std	Z+1, r25	; 0x01
    2d90:	80 83       	st	Z, r24
    2d92:	26 96       	adiw	r28, 0x06	; 6
    2d94:	0f b6       	in	r0, 0x3f	; 63
    2d96:	f8 94       	cli
    2d98:	de bf       	out	0x3e, r29	; 62
    2d9a:	0f be       	out	0x3f, r0	; 63
    2d9c:	cd bf       	out	0x3d, r28	; 61
    2d9e:	df 91       	pop	r29
    2da0:	cf 91       	pop	r28
    2da2:	1f 91       	pop	r17
    2da4:	0f 91       	pop	r16
    2da6:	08 95       	ret
    2da8:	80 e0       	ldi	r24, 0x00	; 0
    2daa:	90 e0       	ldi	r25, 0x00	; 0
    2dac:	cb cf       	rjmp	.-106    	; 0x2d44 <effect_finite_worm.1472+0xf8>
    2dae:	5f 5f       	subi	r21, 0xFF	; 255
    2db0:	50 93 55 04 	sts	0x0455, r21
    2db4:	e1 cf       	rjmp	.-62     	; 0x2d78 <effect_finite_worm.1472+0x12c>
    2db6:	0e 94 aa 22 	call	0x4554	; 0x4554 <rand>
    2dba:	6a e0       	ldi	r22, 0x0A	; 10
    2dbc:	70 e0       	ldi	r23, 0x00	; 0
    2dbe:	0e 94 18 22 	call	0x4430	; 0x4430 <__divmodhi4>
    2dc2:	88 30       	cpi	r24, 0x08	; 8
    2dc4:	38 f0       	brcs	.+14     	; 0x2dd4 <effect_finite_worm.1472+0x188>
    2dc6:	80 91 34 04 	lds	r24, 0x0434
    2dca:	90 91 35 04 	lds	r25, 0x0435
    2dce:	40 91 36 04 	lds	r20, 0x0436
    2dd2:	b4 cf       	rjmp	.-152    	; 0x2d3c <effect_finite_worm.1472+0xf0>
    2dd4:	80 91 34 04 	lds	r24, 0x0434
    2dd8:	90 91 35 04 	lds	r25, 0x0435
    2ddc:	40 91 36 04 	lds	r20, 0x0436
    2de0:	b8 cf       	rjmp	.-144    	; 0x2d52 <effect_finite_worm.1472+0x106>

00002de2 <effect_worm.1470>:
    2de2:	2f ef       	ldi	r18, 0xFF	; 255
    2de4:	3f e0       	ldi	r19, 0x0F	; 15
    2de6:	40 91 32 04 	lds	r20, 0x0432
    2dea:	60 91 30 04 	lds	r22, 0x0430
    2dee:	80 91 2e 04 	lds	r24, 0x042E
    2df2:	0e 94 fe 07 	call	0xffc	; 0xffc <set_led_8_8_12>
    2df6:	e0 91 34 04 	lds	r30, 0x0434
    2dfa:	f0 91 35 04 	lds	r31, 0x0435
    2dfe:	df 01       	movw	r26, r30
    2e00:	aa 0f       	add	r26, r26
    2e02:	bb 1f       	adc	r27, r27
    2e04:	a2 5d       	subi	r26, 0xD2	; 210
    2e06:	bb 4f       	sbci	r27, 0xFB	; 251
    2e08:	20 91 36 04 	lds	r18, 0x0436
    2e0c:	30 91 37 04 	lds	r19, 0x0437
    2e10:	8d 91       	ld	r24, X+
    2e12:	9c 91       	ld	r25, X
    2e14:	82 0f       	add	r24, r18
    2e16:	93 1f       	adc	r25, r19
    2e18:	08 97       	sbiw	r24, 0x08	; 8
    2e1a:	e8 f0       	brcs	.+58     	; 0x2e56 <effect_worm.1470+0x74>
    2e1c:	31 96       	adiw	r30, 0x01	; 1
    2e1e:	e3 30       	cpi	r30, 0x03	; 3
    2e20:	f1 05       	cpc	r31, r1
    2e22:	b0 f4       	brcc	.+44     	; 0x2e50 <effect_worm.1470+0x6e>
    2e24:	f0 93 35 04 	sts	0x0435, r31
    2e28:	e0 93 34 04 	sts	0x0434, r30
    2e2c:	31 95       	neg	r19
    2e2e:	21 95       	neg	r18
    2e30:	31 09       	sbc	r19, r1
    2e32:	30 93 37 04 	sts	0x0437, r19
    2e36:	20 93 36 04 	sts	0x0436, r18
    2e3a:	ee 0f       	add	r30, r30
    2e3c:	ff 1f       	adc	r31, r31
    2e3e:	e2 5d       	subi	r30, 0xD2	; 210
    2e40:	fb 4f       	sbci	r31, 0xFB	; 251
    2e42:	80 81       	ld	r24, Z
    2e44:	91 81       	ldd	r25, Z+1	; 0x01
    2e46:	82 0f       	add	r24, r18
    2e48:	93 1f       	adc	r25, r19
    2e4a:	91 83       	std	Z+1, r25	; 0x01
    2e4c:	80 83       	st	Z, r24
    2e4e:	08 95       	ret
    2e50:	e0 e0       	ldi	r30, 0x00	; 0
    2e52:	f0 e0       	ldi	r31, 0x00	; 0
    2e54:	e7 cf       	rjmp	.-50     	; 0x2e24 <effect_worm.1470+0x42>
    2e56:	0e 94 aa 22 	call	0x4554	; 0x4554 <rand>
    2e5a:	6a e0       	ldi	r22, 0x0A	; 10
    2e5c:	70 e0       	ldi	r23, 0x00	; 0
    2e5e:	0e 94 18 22 	call	0x4430	; 0x4430 <__divmodhi4>
    2e62:	e0 91 34 04 	lds	r30, 0x0434
    2e66:	f0 91 35 04 	lds	r31, 0x0435
    2e6a:	20 91 36 04 	lds	r18, 0x0436
    2e6e:	30 91 37 04 	lds	r19, 0x0437
    2e72:	88 30       	cpi	r24, 0x08	; 8
    2e74:	98 f6       	brcc	.-90     	; 0x2e1c <effect_worm.1470+0x3a>
    2e76:	e1 cf       	rjmp	.-62     	; 0x2e3a <effect_worm.1470+0x58>

00002e78 <init_starfield.1468>:
    2e78:	ef 92       	push	r14
    2e7a:	ff 92       	push	r15
    2e7c:	0f 93       	push	r16
    2e7e:	1f 93       	push	r17
    2e80:	cf 93       	push	r28
    2e82:	df 93       	push	r29
    2e84:	c0 e3       	ldi	r28, 0x30	; 48
    2e86:	d4 e0       	ldi	r29, 0x04	; 4
    2e88:	13 c0       	rjmp	.+38     	; 0x2eb0 <init_starfield.1468+0x38>
    2e8a:	40 83       	st	Z, r20
    2e8c:	fe 01       	movw	r30, r28
    2e8e:	31 97       	sbiw	r30, 0x01	; 1
    2e90:	98 01       	movw	r18, r16
    2e92:	27 70       	andi	r18, 0x07	; 7
    2e94:	30 78       	andi	r19, 0x80	; 128
    2e96:	37 fd       	sbrc	r19, 7
    2e98:	28 c0       	rjmp	.+80     	; 0x2eea <init_starfield.1468+0x72>
    2e9a:	20 83       	st	Z, r18
    2e9c:	87 70       	andi	r24, 0x07	; 7
    2e9e:	90 78       	andi	r25, 0x80	; 128
    2ea0:	97 fd       	sbrc	r25, 7
    2ea2:	2e c0       	rjmp	.+92     	; 0x2f00 <init_starfield.1468+0x88>
    2ea4:	88 83       	st	Y, r24
    2ea6:	23 96       	adiw	r28, 0x03	; 3
    2ea8:	84 e0       	ldi	r24, 0x04	; 4
    2eaa:	ce 34       	cpi	r28, 0x4E	; 78
    2eac:	d8 07       	cpc	r29, r24
    2eae:	91 f1       	breq	.+100    	; 0x2f14 <init_starfield.1468+0x9c>
    2eb0:	0e 94 aa 22 	call	0x4554	; 0x4554 <rand>
    2eb4:	7c 01       	movw	r14, r24
    2eb6:	0e 94 aa 22 	call	0x4554	; 0x4554 <rand>
    2eba:	8c 01       	movw	r16, r24
    2ebc:	0e 94 aa 22 	call	0x4554	; 0x4554 <rand>
    2ec0:	fe 01       	movw	r30, r28
    2ec2:	32 97       	sbiw	r30, 0x02	; 2
    2ec4:	a7 01       	movw	r20, r14
    2ec6:	47 70       	andi	r20, 0x07	; 7
    2ec8:	50 78       	andi	r21, 0x80	; 128
    2eca:	57 ff       	sbrs	r21, 7
    2ecc:	de cf       	rjmp	.-68     	; 0x2e8a <init_starfield.1468+0x12>
    2ece:	41 50       	subi	r20, 0x01	; 1
    2ed0:	51 09       	sbc	r21, r1
    2ed2:	48 6f       	ori	r20, 0xF8	; 248
    2ed4:	5f 6f       	ori	r21, 0xFF	; 255
    2ed6:	4f 5f       	subi	r20, 0xFF	; 255
    2ed8:	5f 4f       	sbci	r21, 0xFF	; 255
    2eda:	40 83       	st	Z, r20
    2edc:	fe 01       	movw	r30, r28
    2ede:	31 97       	sbiw	r30, 0x01	; 1
    2ee0:	98 01       	movw	r18, r16
    2ee2:	27 70       	andi	r18, 0x07	; 7
    2ee4:	30 78       	andi	r19, 0x80	; 128
    2ee6:	37 ff       	sbrs	r19, 7
    2ee8:	d8 cf       	rjmp	.-80     	; 0x2e9a <init_starfield.1468+0x22>
    2eea:	21 50       	subi	r18, 0x01	; 1
    2eec:	31 09       	sbc	r19, r1
    2eee:	28 6f       	ori	r18, 0xF8	; 248
    2ef0:	3f 6f       	ori	r19, 0xFF	; 255
    2ef2:	2f 5f       	subi	r18, 0xFF	; 255
    2ef4:	3f 4f       	sbci	r19, 0xFF	; 255
    2ef6:	20 83       	st	Z, r18
    2ef8:	87 70       	andi	r24, 0x07	; 7
    2efa:	90 78       	andi	r25, 0x80	; 128
    2efc:	97 ff       	sbrs	r25, 7
    2efe:	d2 cf       	rjmp	.-92     	; 0x2ea4 <init_starfield.1468+0x2c>
    2f00:	01 97       	sbiw	r24, 0x01	; 1
    2f02:	88 6f       	ori	r24, 0xF8	; 248
    2f04:	9f 6f       	ori	r25, 0xFF	; 255
    2f06:	01 96       	adiw	r24, 0x01	; 1
    2f08:	88 83       	st	Y, r24
    2f0a:	23 96       	adiw	r28, 0x03	; 3
    2f0c:	84 e0       	ldi	r24, 0x04	; 4
    2f0e:	ce 34       	cpi	r28, 0x4E	; 78
    2f10:	d8 07       	cpc	r29, r24
    2f12:	71 f6       	brne	.-100    	; 0x2eb0 <init_starfield.1468+0x38>
    2f14:	df 91       	pop	r29
    2f16:	cf 91       	pop	r28
    2f18:	1f 91       	pop	r17
    2f1a:	0f 91       	pop	r16
    2f1c:	ff 90       	pop	r15
    2f1e:	ef 90       	pop	r14
    2f20:	0c 94 e5 09 	jmp	0x13ca	; 0x13ca <clear_buffer>

00002f24 <init_particles.1466>:
    2f24:	ef 92       	push	r14
    2f26:	ff 92       	push	r15
    2f28:	0f 93       	push	r16
    2f2a:	1f 93       	push	r17
    2f2c:	cf 93       	push	r28
    2f2e:	df 93       	push	r29
    2f30:	c0 e0       	ldi	r28, 0x00	; 0
    2f32:	d0 e0       	ldi	r29, 0x00	; 0
    2f34:	0e 94 aa 22 	call	0x4554	; 0x4554 <rand>
    2f38:	7c 01       	movw	r14, r24
    2f3a:	0e 94 aa 22 	call	0x4554	; 0x4554 <rand>
    2f3e:	8c 01       	movw	r16, r24
    2f40:	0e 94 aa 22 	call	0x4554	; 0x4554 <rand>
    2f44:	fe 01       	movw	r30, r28
    2f46:	ee 0f       	add	r30, r30
    2f48:	ff 1f       	adc	r31, r31
    2f4a:	ec 0f       	add	r30, r28
    2f4c:	fd 1f       	adc	r31, r29
    2f4e:	e2 5d       	subi	r30, 0xD2	; 210
    2f50:	fb 4f       	sbci	r31, 0xFB	; 251
    2f52:	a7 01       	movw	r20, r14
    2f54:	47 70       	andi	r20, 0x07	; 7
    2f56:	50 78       	andi	r21, 0x80	; 128
    2f58:	57 fd       	sbrc	r21, 7
    2f5a:	24 c0       	rjmp	.+72     	; 0x2fa4 <init_particles.1466+0x80>
    2f5c:	40 83       	st	Z, r20
    2f5e:	98 01       	movw	r18, r16
    2f60:	27 70       	andi	r18, 0x07	; 7
    2f62:	30 78       	andi	r19, 0x80	; 128
    2f64:	37 fd       	sbrc	r19, 7
    2f66:	17 c0       	rjmp	.+46     	; 0x2f96 <init_particles.1466+0x72>
    2f68:	21 83       	std	Z+1, r18	; 0x01
    2f6a:	87 70       	andi	r24, 0x07	; 7
    2f6c:	90 78       	andi	r25, 0x80	; 128
    2f6e:	97 fd       	sbrc	r25, 7
    2f70:	0d c0       	rjmp	.+26     	; 0x2f8c <init_particles.1466+0x68>
    2f72:	82 83       	std	Z+2, r24	; 0x02
    2f74:	21 96       	adiw	r28, 0x01	; 1
    2f76:	c5 30       	cpi	r28, 0x05	; 5
    2f78:	d1 05       	cpc	r29, r1
    2f7a:	e1 f6       	brne	.-72     	; 0x2f34 <init_particles.1466+0x10>
    2f7c:	df 91       	pop	r29
    2f7e:	cf 91       	pop	r28
    2f80:	1f 91       	pop	r17
    2f82:	0f 91       	pop	r16
    2f84:	ff 90       	pop	r15
    2f86:	ef 90       	pop	r14
    2f88:	0c 94 e5 09 	jmp	0x13ca	; 0x13ca <clear_buffer>
    2f8c:	01 97       	sbiw	r24, 0x01	; 1
    2f8e:	88 6f       	ori	r24, 0xF8	; 248
    2f90:	9f 6f       	ori	r25, 0xFF	; 255
    2f92:	01 96       	adiw	r24, 0x01	; 1
    2f94:	ee cf       	rjmp	.-36     	; 0x2f72 <init_particles.1466+0x4e>
    2f96:	21 50       	subi	r18, 0x01	; 1
    2f98:	31 09       	sbc	r19, r1
    2f9a:	28 6f       	ori	r18, 0xF8	; 248
    2f9c:	3f 6f       	ori	r19, 0xFF	; 255
    2f9e:	2f 5f       	subi	r18, 0xFF	; 255
    2fa0:	3f 4f       	sbci	r19, 0xFF	; 255
    2fa2:	e2 cf       	rjmp	.-60     	; 0x2f68 <init_particles.1466+0x44>
    2fa4:	41 50       	subi	r20, 0x01	; 1
    2fa6:	51 09       	sbc	r21, r1
    2fa8:	48 6f       	ori	r20, 0xF8	; 248
    2faa:	5f 6f       	ori	r21, 0xFF	; 255
    2fac:	4f 5f       	subi	r20, 0xFF	; 255
    2fae:	5f 4f       	sbci	r21, 0xFF	; 255
    2fb0:	d5 cf       	rjmp	.-86     	; 0x2f5c <init_particles.1466+0x38>

00002fb2 <send_string_from_pgm>:
    2fb2:	1f 93       	push	r17
    2fb4:	cf 93       	push	r28
    2fb6:	df 93       	push	r29
    2fb8:	fc 01       	movw	r30, r24
    2fba:	85 91       	lpm	r24, Z+
    2fbc:	94 91       	lpm	r25, Z+
    2fbe:	c8 2f       	mov	r28, r24
    2fc0:	d9 2f       	mov	r29, r25
    2fc2:	20 97       	sbiw	r28, 0x00	; 0
    2fc4:	61 f0       	breq	.+24     	; 0x2fde <send_string_from_pgm+0x2c>
    2fc6:	fe 01       	movw	r30, r28
    2fc8:	21 96       	adiw	r28, 0x01	; 1
    2fca:	14 91       	lpm	r17, Z+
    2fcc:	81 2f       	mov	r24, r17
    2fce:	0e 94 18 0e 	call	0x1c30	; 0x1c30 <send_escaped>
    2fd2:	11 11       	cpse	r17, r1
    2fd4:	f8 cf       	rjmp	.-16     	; 0x2fc6 <send_string_from_pgm+0x14>
    2fd6:	df 91       	pop	r29
    2fd8:	cf 91       	pop	r28
    2fda:	1f 91       	pop	r17
    2fdc:	08 95       	ret
    2fde:	80 e0       	ldi	r24, 0x00	; 0
    2fe0:	df 91       	pop	r29
    2fe2:	cf 91       	pop	r28
    2fe4:	1f 91       	pop	r17
    2fe6:	0c 94 bb 0d 	jmp	0x1b76	; 0x1b76 <serial_send>

00002fea <effect_rain.1521>:
    2fea:	cf 92       	push	r12
    2fec:	df 92       	push	r13
    2fee:	ef 92       	push	r14
    2ff0:	ff 92       	push	r15
    2ff2:	0f 93       	push	r16
    2ff4:	1f 93       	push	r17
    2ff6:	cf 93       	push	r28
    2ff8:	df 93       	push	r29
    2ffa:	0e 94 e5 09 	call	0x13ca	; 0x13ca <clear_buffer>
    2ffe:	c1 2c       	mov	r12, r1
    3000:	d1 2c       	mov	r13, r1
    3002:	e1 2c       	mov	r14, r1
    3004:	e6 01       	movw	r28, r12
    3006:	10 e0       	ldi	r17, 0x00	; 0
    3008:	ce 01       	movw	r24, r28
    300a:	0e 94 af 22 	call	0x455e	; 0x455e <srand>
    300e:	40 91 25 01 	lds	r20, 0x0125
    3012:	50 91 26 01 	lds	r21, 0x0126
    3016:	56 95       	lsr	r21
    3018:	47 95       	ror	r20
    301a:	56 95       	lsr	r21
    301c:	47 95       	ror	r20
    301e:	56 95       	lsr	r21
    3020:	47 95       	ror	r20
    3022:	04 2f       	mov	r16, r20
    3024:	0e 94 aa 22 	call	0x4554	; 0x4554 <rand>
    3028:	40 2f       	mov	r20, r16
    302a:	48 0f       	add	r20, r24
    302c:	47 70       	andi	r20, 0x07	; 7
    302e:	2f ef       	ldi	r18, 0xFF	; 255
    3030:	31 e0       	ldi	r19, 0x01	; 1
    3032:	61 2f       	mov	r22, r17
    3034:	8e 2d       	mov	r24, r14
    3036:	0e 94 fe 07 	call	0xffc	; 0xffc <set_led_8_8_12>
    303a:	1f 5f       	subi	r17, 0xFF	; 255
    303c:	23 96       	adiw	r28, 0x03	; 3
    303e:	18 30       	cpi	r17, 0x08	; 8
    3040:	19 f7       	brne	.-58     	; 0x3008 <effect_rain.1521+0x1e>
    3042:	e3 94       	inc	r14
    3044:	88 e1       	ldi	r24, 0x18	; 24
    3046:	c8 0e       	add	r12, r24
    3048:	d1 1c       	adc	r13, r1
    304a:	88 e0       	ldi	r24, 0x08	; 8
    304c:	e8 12       	cpse	r14, r24
    304e:	da cf       	rjmp	.-76     	; 0x3004 <effect_rain.1521+0x1a>
    3050:	c0 91 25 01 	lds	r28, 0x0125
    3054:	d0 91 26 01 	lds	r29, 0x0126
    3058:	fe 01       	movw	r30, r28
    305a:	ee 0f       	add	r30, r30
    305c:	ef 2f       	mov	r30, r31
    305e:	ee 1f       	adc	r30, r30
    3060:	ff 0b       	sbc	r31, r31
    3062:	f1 95       	neg	r31
    3064:	9f 01       	movw	r18, r30
    3066:	a3 e9       	ldi	r26, 0x93	; 147
    3068:	b4 e2       	ldi	r27, 0x24	; 36
    306a:	0e 94 e8 21 	call	0x43d0	; 0x43d0 <__umulhisi3>
    306e:	af 01       	movw	r20, r30
    3070:	48 1b       	sub	r20, r24
    3072:	59 0b       	sbc	r21, r25
    3074:	56 95       	lsr	r21
    3076:	47 95       	ror	r20
    3078:	48 0f       	add	r20, r24
    307a:	59 1f       	adc	r21, r25
    307c:	56 95       	lsr	r21
    307e:	47 95       	ror	r20
    3080:	56 95       	lsr	r21
    3082:	47 95       	ror	r20
    3084:	ca 01       	movw	r24, r20
    3086:	88 0f       	add	r24, r24
    3088:	99 1f       	adc	r25, r25
    308a:	88 0f       	add	r24, r24
    308c:	99 1f       	adc	r25, r25
    308e:	88 0f       	add	r24, r24
    3090:	99 1f       	adc	r25, r25
    3092:	84 1b       	sub	r24, r20
    3094:	95 0b       	sbc	r25, r21
    3096:	de 2e       	mov	r13, r30
    3098:	d8 1a       	sub	r13, r24
    309a:	ed 2c       	mov	r14, r13
    309c:	e3 94       	inc	r14
    309e:	cc 2e       	mov	r12, r28
    30a0:	8f e7       	ldi	r24, 0x7F	; 127
    30a2:	c8 22       	and	r12, r24
    30a4:	f1 2c       	mov	r15, r1
    30a6:	c7 e0       	ldi	r28, 0x07	; 7
    30a8:	0c 2f       	mov	r16, r28
    30aa:	0f 19       	sub	r16, r15
    30ac:	10 e0       	ldi	r17, 0x00	; 0
    30ae:	d0 e0       	ldi	r29, 0x00	; 0
    30b0:	2f ef       	ldi	r18, 0xFF	; 255
    30b2:	3f e0       	ldi	r19, 0x0F	; 15
    30b4:	40 2f       	mov	r20, r16
    30b6:	6d 2f       	mov	r22, r29
    30b8:	81 2f       	mov	r24, r17
    30ba:	0e 94 fe 07 	call	0xffc	; 0xffc <set_led_8_8_12>
    30be:	df 5f       	subi	r29, 0xFF	; 255
    30c0:	d8 30       	cpi	r29, 0x08	; 8
    30c2:	b1 f7       	brne	.-20     	; 0x30b0 <effect_rain.1521+0xc6>
    30c4:	1f 5f       	subi	r17, 0xFF	; 255
    30c6:	18 30       	cpi	r17, 0x08	; 8
    30c8:	91 f7       	brne	.-28     	; 0x30ae <effect_rain.1521+0xc4>
    30ca:	f3 94       	inc	r15
    30cc:	fe 14       	cp	r15, r14
    30ce:	60 f3       	brcs	.-40     	; 0x30a8 <effect_rain.1521+0xbe>
    30d0:	77 e0       	ldi	r23, 0x07	; 7
    30d2:	f7 2e       	mov	r15, r23
    30d4:	fd 18       	sub	r15, r13
    30d6:	2c 2d       	mov	r18, r12
    30d8:	22 0f       	add	r18, r18
    30da:	30 e0       	ldi	r19, 0x00	; 0
    30dc:	00 e0       	ldi	r16, 0x00	; 0
    30de:	22 0f       	add	r18, r18
    30e0:	33 1f       	adc	r19, r19
    30e2:	24 57       	subi	r18, 0x74	; 116
    30e4:	39 4f       	sbci	r19, 0xF9	; 249
    30e6:	f9 01       	movw	r30, r18
    30e8:	c5 91       	lpm	r28, Z+
    30ea:	d4 91       	lpm	r29, Z+
    30ec:	10 e0       	ldi	r17, 0x00	; 0
    30ee:	9e 01       	movw	r18, r28
    30f0:	4f 2d       	mov	r20, r15
    30f2:	61 2f       	mov	r22, r17
    30f4:	80 2f       	mov	r24, r16
    30f6:	0e 94 fe 07 	call	0xffc	; 0xffc <set_led_8_8_12>
    30fa:	1f 5f       	subi	r17, 0xFF	; 255
    30fc:	18 30       	cpi	r17, 0x08	; 8
    30fe:	b9 f7       	brne	.-18     	; 0x30ee <effect_rain.1521+0x104>
    3100:	0f 5f       	subi	r16, 0xFF	; 255
    3102:	08 30       	cpi	r16, 0x08	; 8
    3104:	99 f7       	brne	.-26     	; 0x30ec <effect_rain.1521+0x102>
    3106:	df 91       	pop	r29
    3108:	cf 91       	pop	r28
    310a:	1f 91       	pop	r17
    310c:	0f 91       	pop	r16
    310e:	ff 90       	pop	r15
    3110:	ef 90       	pop	r14
    3112:	df 90       	pop	r13
    3114:	cf 90       	pop	r12
    3116:	08 95       	ret

00003118 <init_current_effect.2061>:
    3118:	f8 94       	cli
    311a:	80 91 0e 01 	lds	r24, 0x010E
    311e:	8e 7f       	andi	r24, 0xFE	; 254
    3120:	80 93 0e 01 	sts	0x010E, r24
    3124:	78 94       	sei
    3126:	80 91 08 01 	lds	r24, 0x0108
    312a:	90 91 09 01 	lds	r25, 0x0109
    312e:	86 55       	subi	r24, 0x56	; 86
    3130:	94 40       	sbci	r25, 0x04	; 4
    3132:	09 f4       	brne	.+2      	; 0x3136 <init_current_effect.2061+0x1e>
    3134:	4f c0       	rjmp	.+158    	; 0x31d4 <init_current_effect.2061+0xbc>
    3136:	86 e5       	ldi	r24, 0x56	; 86
    3138:	94 e0       	ldi	r25, 0x04	; 4
    313a:	90 93 07 01 	sts	0x0107, r25
    313e:	80 93 06 01 	sts	0x0106, r24
    3142:	80 91 a8 07 	lds	r24, 0x07A8
    3146:	90 91 a9 07 	lds	r25, 0x07A9
    314a:	a0 91 aa 07 	lds	r26, 0x07AA
    314e:	b0 91 ab 07 	lds	r27, 0x07AB
    3152:	80 91 a8 07 	lds	r24, 0x07A8
    3156:	90 91 a9 07 	lds	r25, 0x07A9
    315a:	a0 91 aa 07 	lds	r26, 0x07AA
    315e:	b0 91 ab 07 	lds	r27, 0x07AB
    3162:	20 91 17 01 	lds	r18, 0x0117
    3166:	30 91 18 01 	lds	r19, 0x0118
    316a:	82 27       	eor	r24, r18
    316c:	93 27       	eor	r25, r19
    316e:	0e 94 af 22 	call	0x455e	; 0x455e <srand>
    3172:	80 91 29 01 	lds	r24, 0x0129
    3176:	90 91 2a 01 	lds	r25, 0x012A
    317a:	fc 01       	movw	r30, r24
    317c:	32 96       	adiw	r30, 0x02	; 2
    317e:	25 91       	lpm	r18, Z+
    3180:	34 91       	lpm	r19, Z+
    3182:	f9 01       	movw	r30, r18
    3184:	30 97       	sbiw	r30, 0x00	; 0
    3186:	29 f0       	breq	.+10     	; 0x3192 <init_current_effect.2061+0x7a>
    3188:	09 95       	icall
    318a:	80 91 29 01 	lds	r24, 0x0129
    318e:	90 91 2a 01 	lds	r25, 0x012A
    3192:	40 91 08 01 	lds	r20, 0x0108
    3196:	50 91 09 01 	lds	r21, 0x0109
    319a:	20 91 06 01 	lds	r18, 0x0106
    319e:	30 91 07 01 	lds	r19, 0x0107
    31a2:	30 93 09 01 	sts	0x0109, r19
    31a6:	20 93 08 01 	sts	0x0108, r18
    31aa:	fc 01       	movw	r30, r24
    31ac:	36 96       	adiw	r30, 0x06	; 6
    31ae:	84 91       	lpm	r24, Z+
    31b0:	81 11       	cpse	r24, r1
    31b2:	0b c0       	rjmp	.+22     	; 0x31ca <init_current_effect.2061+0xb2>
    31b4:	30 93 07 01 	sts	0x0107, r19
    31b8:	20 93 06 01 	sts	0x0106, r18
    31bc:	f8 94       	cli
    31be:	10 92 18 01 	sts	0x0118, r1
    31c2:	10 92 17 01 	sts	0x0117, r1
    31c6:	78 94       	sei
    31c8:	08 95       	ret
    31ca:	50 93 07 01 	sts	0x0107, r21
    31ce:	40 93 06 01 	sts	0x0106, r20
    31d2:	f4 cf       	rjmp	.-24     	; 0x31bc <init_current_effect.2061+0xa4>
    31d4:	8e e2       	ldi	r24, 0x2E	; 46
    31d6:	91 e0       	ldi	r25, 0x01	; 1
    31d8:	90 93 07 01 	sts	0x0107, r25
    31dc:	80 93 06 01 	sts	0x0106, r24
    31e0:	b0 cf       	rjmp	.-160    	; 0x3142 <init_current_effect.2061+0x2a>

000031e2 <__vector_21>:
    31e2:	1f 92       	push	r1
    31e4:	0f 92       	push	r0
    31e6:	0f b6       	in	r0, 0x3f	; 63
    31e8:	0f 92       	push	r0
    31ea:	11 24       	eor	r1, r1
    31ec:	2f 93       	push	r18
    31ee:	3f 93       	push	r19
    31f0:	4f 93       	push	r20
    31f2:	8f 93       	push	r24
    31f4:	9f 93       	push	r25
    31f6:	ef 93       	push	r30
    31f8:	ff 93       	push	r31
    31fa:	20 91 19 01 	lds	r18, 0x0119
    31fe:	30 91 78 00 	lds	r19, 0x0078
    3202:	40 91 79 00 	lds	r20, 0x0079
    3206:	e2 2f       	mov	r30, r18
    3208:	f0 e0       	ldi	r31, 0x00	; 0
    320a:	ee 0f       	add	r30, r30
    320c:	ff 1f       	adc	r31, r31
    320e:	e6 5e       	subi	r30, 0xE6	; 230
    3210:	fe 4f       	sbci	r31, 0xFE	; 254
    3212:	94 2f       	mov	r25, r20
    3214:	80 e0       	ldi	r24, 0x00	; 0
    3216:	83 2b       	or	r24, r19
    3218:	91 83       	std	Z+1, r25	; 0x01
    321a:	80 83       	st	Z, r24
    321c:	2f 5f       	subi	r18, 0xFF	; 255
    321e:	22 30       	cpi	r18, 0x02	; 2
    3220:	d0 f0       	brcs	.+52     	; 0x3256 <__vector_21+0x74>
    3222:	10 92 19 01 	sts	0x0119, r1
    3226:	20 e0       	ldi	r18, 0x00	; 0
    3228:	80 91 7c 00 	lds	r24, 0x007C
    322c:	80 7e       	andi	r24, 0xE0	; 224
    322e:	82 2b       	or	r24, r18
    3230:	80 93 7c 00 	sts	0x007C, r24
    3234:	80 91 7a 00 	lds	r24, 0x007A
    3238:	80 64       	ori	r24, 0x40	; 64
    323a:	80 93 7a 00 	sts	0x007A, r24
    323e:	ff 91       	pop	r31
    3240:	ef 91       	pop	r30
    3242:	9f 91       	pop	r25
    3244:	8f 91       	pop	r24
    3246:	4f 91       	pop	r20
    3248:	3f 91       	pop	r19
    324a:	2f 91       	pop	r18
    324c:	0f 90       	pop	r0
    324e:	0f be       	out	0x3f, r0	; 63
    3250:	0f 90       	pop	r0
    3252:	1f 90       	pop	r1
    3254:	18 95       	reti
    3256:	20 93 19 01 	sts	0x0119, r18
    325a:	e6 cf       	rjmp	.-52     	; 0x3228 <__vector_21+0x46>

0000325c <__vector_7>:
    325c:	1f 92       	push	r1
    325e:	0f 92       	push	r0
    3260:	0f b6       	in	r0, 0x3f	; 63
    3262:	0f 92       	push	r0
    3264:	11 24       	eor	r1, r1
    3266:	8f 92       	push	r8
    3268:	9f 92       	push	r9
    326a:	af 92       	push	r10
    326c:	bf 92       	push	r11
    326e:	cf 92       	push	r12
    3270:	df 92       	push	r13
    3272:	ef 92       	push	r14
    3274:	ff 92       	push	r15
    3276:	0f 93       	push	r16
    3278:	1f 93       	push	r17
    327a:	2f 93       	push	r18
    327c:	3f 93       	push	r19
    327e:	4f 93       	push	r20
    3280:	5f 93       	push	r21
    3282:	6f 93       	push	r22
    3284:	7f 93       	push	r23
    3286:	8f 93       	push	r24
    3288:	9f 93       	push	r25
    328a:	af 93       	push	r26
    328c:	bf 93       	push	r27
    328e:	ef 93       	push	r30
    3290:	ff 93       	push	r31
    3292:	cf 93       	push	r28
    3294:	df 93       	push	r29
    3296:	cd b7       	in	r28, 0x3d	; 61
    3298:	de b7       	in	r29, 0x3e	; 62
    329a:	60 97       	sbiw	r28, 0x10	; 16
    329c:	de bf       	out	0x3e, r29	; 62
    329e:	cd bf       	out	0x3d, r28	; 61
    32a0:	80 91 17 01 	lds	r24, 0x0117
    32a4:	90 91 18 01 	lds	r25, 0x0118
    32a8:	01 96       	adiw	r24, 0x01	; 1
    32aa:	49 f0       	breq	.+18     	; 0x32be <__vector_7+0x62>
    32ac:	80 91 17 01 	lds	r24, 0x0117
    32b0:	90 91 18 01 	lds	r25, 0x0118
    32b4:	01 96       	adiw	r24, 0x01	; 1
    32b6:	90 93 18 01 	sts	0x0118, r25
    32ba:	80 93 17 01 	sts	0x0117, r24
    32be:	e0 91 17 01 	lds	r30, 0x0117
    32c2:	f0 91 18 01 	lds	r31, 0x0118
    32c6:	9f 01       	movw	r18, r30
    32c8:	ad ec       	ldi	r26, 0xCD	; 205
    32ca:	bc ec       	ldi	r27, 0xCC	; 204
    32cc:	0e 94 e8 21 	call	0x43d0	; 0x43d0 <__umulhisi3>
    32d0:	96 95       	lsr	r25
    32d2:	87 95       	ror	r24
    32d4:	96 95       	lsr	r25
    32d6:	87 95       	ror	r24
    32d8:	ac 01       	movw	r20, r24
    32da:	44 0f       	add	r20, r20
    32dc:	55 1f       	adc	r21, r21
    32de:	44 0f       	add	r20, r20
    32e0:	55 1f       	adc	r21, r21
    32e2:	48 0f       	add	r20, r24
    32e4:	59 1f       	adc	r21, r25
    32e6:	e4 17       	cp	r30, r20
    32e8:	f5 07       	cpc	r31, r21
    32ea:	09 f4       	brne	.+2      	; 0x32ee <__vector_7+0x92>
    32ec:	98 95       	break
    32ee:	80 91 ac 07 	lds	r24, 0x07AC
    32f2:	81 50       	subi	r24, 0x01	; 1
    32f4:	80 93 ac 07 	sts	0x07AC, r24
    32f8:	81 11       	cpse	r24, r1
    32fa:	11 c0       	rjmp	.+34     	; 0x331e <__vector_7+0xc2>
    32fc:	90 91 ad 07 	lds	r25, 0x07AD
    3300:	80 91 a8 07 	lds	r24, 0x07A8
    3304:	20 91 a9 07 	lds	r18, 0x07A9
    3308:	82 27       	eor	r24, r18
    330a:	25 e5       	ldi	r18, 0x55	; 85
    330c:	82 27       	eor	r24, r18
    330e:	30 91 aa 07 	lds	r19, 0x07AA
    3312:	83 27       	eor	r24, r19
    3314:	30 91 ab 07 	lds	r19, 0x07AB
    3318:	83 27       	eor	r24, r19
    331a:	89 17       	cp	r24, r25
    331c:	19 f1       	breq	.+70     	; 0x3364 <__vector_7+0x108>
    331e:	60 96       	adiw	r28, 0x10	; 16
    3320:	0f b6       	in	r0, 0x3f	; 63
    3322:	f8 94       	cli
    3324:	de bf       	out	0x3e, r29	; 62
    3326:	0f be       	out	0x3f, r0	; 63
    3328:	cd bf       	out	0x3d, r28	; 61
    332a:	df 91       	pop	r29
    332c:	cf 91       	pop	r28
    332e:	ff 91       	pop	r31
    3330:	ef 91       	pop	r30
    3332:	bf 91       	pop	r27
    3334:	af 91       	pop	r26
    3336:	9f 91       	pop	r25
    3338:	8f 91       	pop	r24
    333a:	7f 91       	pop	r23
    333c:	6f 91       	pop	r22
    333e:	5f 91       	pop	r21
    3340:	4f 91       	pop	r20
    3342:	3f 91       	pop	r19
    3344:	2f 91       	pop	r18
    3346:	1f 91       	pop	r17
    3348:	0f 91       	pop	r16
    334a:	ff 90       	pop	r15
    334c:	ef 90       	pop	r14
    334e:	df 90       	pop	r13
    3350:	cf 90       	pop	r12
    3352:	bf 90       	pop	r11
    3354:	af 90       	pop	r10
    3356:	9f 90       	pop	r9
    3358:	8f 90       	pop	r8
    335a:	0f 90       	pop	r0
    335c:	0f be       	out	0x3f, r0	; 63
    335e:	0f 90       	pop	r0
    3360:	1f 90       	pop	r1
    3362:	18 95       	reti
    3364:	8d e7       	ldi	r24, 0x7D	; 125
    3366:	80 93 ac 07 	sts	0x07AC, r24
    336a:	80 91 a8 07 	lds	r24, 0x07A8
    336e:	90 91 a9 07 	lds	r25, 0x07A9
    3372:	a0 91 aa 07 	lds	r26, 0x07AA
    3376:	b0 91 ab 07 	lds	r27, 0x07AB
    337a:	01 96       	adiw	r24, 0x01	; 1
    337c:	a1 1d       	adc	r26, r1
    337e:	b1 1d       	adc	r27, r1
    3380:	80 93 a8 07 	sts	0x07A8, r24
    3384:	90 93 a9 07 	sts	0x07A9, r25
    3388:	a0 93 aa 07 	sts	0x07AA, r26
    338c:	b0 93 ab 07 	sts	0x07AB, r27
    3390:	80 91 a8 07 	lds	r24, 0x07A8
    3394:	90 91 a9 07 	lds	r25, 0x07A9
    3398:	89 27       	eor	r24, r25
    339a:	82 27       	eor	r24, r18
    339c:	90 91 aa 07 	lds	r25, 0x07AA
    33a0:	89 27       	eor	r24, r25
    33a2:	90 91 ab 07 	lds	r25, 0x07AB
    33a6:	89 27       	eor	r24, r25
    33a8:	80 93 ad 07 	sts	0x07AD, r24
    33ac:	80 91 1e 01 	lds	r24, 0x011E
    33b0:	81 11       	cpse	r24, r1
    33b2:	b5 cf       	rjmp	.-150    	; 0x331e <__vector_7+0xc2>
    33b4:	81 e0       	ldi	r24, 0x01	; 1
    33b6:	80 93 1e 01 	sts	0x011E, r24
    33ba:	80 90 a8 07 	lds	r8, 0x07A8
    33be:	90 90 a9 07 	lds	r9, 0x07A9
    33c2:	a0 90 aa 07 	lds	r10, 0x07AA
    33c6:	b0 90 ab 07 	lds	r11, 0x07AB
    33ca:	78 94       	sei
    33cc:	c0 90 1f 01 	lds	r12, 0x011F
    33d0:	d0 90 20 01 	lds	r13, 0x0120
    33d4:	e0 90 21 01 	lds	r14, 0x0121
    33d8:	f0 90 22 01 	lds	r15, 0x0122
    33dc:	8c 14       	cp	r8, r12
    33de:	9d 04       	cpc	r9, r13
    33e0:	ae 04       	cpc	r10, r14
    33e2:	bf 04       	cpc	r11, r15
    33e4:	50 f4       	brcc	.+20     	; 0x33fa <__vector_7+0x19e>
    33e6:	80 92 1f 01 	sts	0x011F, r8
    33ea:	90 92 20 01 	sts	0x0120, r9
    33ee:	a0 92 21 01 	sts	0x0121, r10
    33f2:	b0 92 22 01 	sts	0x0122, r11
    33f6:	75 01       	movw	r14, r10
    33f8:	64 01       	movw	r12, r8
    33fa:	c5 01       	movw	r24, r10
    33fc:	b4 01       	movw	r22, r8
    33fe:	20 e8       	ldi	r18, 0x80	; 128
    3400:	31 e5       	ldi	r19, 0x51	; 81
    3402:	41 e0       	ldi	r20, 0x01	; 1
    3404:	50 e0       	ldi	r21, 0x00	; 0
    3406:	0e 94 2c 22 	call	0x4458	; 0x4458 <__udivmodsi4>
    340a:	2d 87       	std	Y+13, r18	; 0x0d
    340c:	3e 87       	std	Y+14, r19	; 0x0e
    340e:	4f 87       	std	Y+15, r20	; 0x0f
    3410:	58 8b       	std	Y+16, r21	; 0x10
    3412:	60 e8       	ldi	r22, 0x80	; 128
    3414:	71 e5       	ldi	r23, 0x51	; 81
    3416:	81 e0       	ldi	r24, 0x01	; 1
    3418:	90 e0       	ldi	r25, 0x00	; 0
    341a:	0e 94 f4 21 	call	0x43e8	; 0x43e8 <__mulsi3>
    341e:	69 87       	std	Y+9, r22	; 0x09
    3420:	7a 87       	std	Y+10, r23	; 0x0a
    3422:	8b 87       	std	Y+11, r24	; 0x0b
    3424:	9c 87       	std	Y+12, r25	; 0x0c
    3426:	c6 16       	cp	r12, r22
    3428:	d7 06       	cpc	r13, r23
    342a:	e8 06       	cpc	r14, r24
    342c:	f9 06       	cpc	r15, r25
    342e:	08 f4       	brcc	.+2      	; 0x3432 <__vector_7+0x1d6>
    3430:	84 c0       	rjmp	.+264    	; 0x353a <__vector_7+0x2de>
    3432:	c7 01       	movw	r24, r14
    3434:	b6 01       	movw	r22, r12
    3436:	29 85       	ldd	r18, Y+9	; 0x09
    3438:	3a 85       	ldd	r19, Y+10	; 0x0a
    343a:	4b 85       	ldd	r20, Y+11	; 0x0b
    343c:	5c 85       	ldd	r21, Y+12	; 0x0c
    343e:	62 1b       	sub	r22, r18
    3440:	73 0b       	sbc	r23, r19
    3442:	84 0b       	sbc	r24, r20
    3444:	95 0b       	sbc	r25, r21
    3446:	2c e3       	ldi	r18, 0x3C	; 60
    3448:	30 e0       	ldi	r19, 0x00	; 0
    344a:	40 e0       	ldi	r20, 0x00	; 0
    344c:	50 e0       	ldi	r21, 0x00	; 0
    344e:	0e 94 2c 22 	call	0x4458	; 0x4458 <__udivmodsi4>
    3452:	69 01       	movw	r12, r18
    3454:	c5 01       	movw	r24, r10
    3456:	b4 01       	movw	r22, r8
    3458:	29 85       	ldd	r18, Y+9	; 0x09
    345a:	3a 85       	ldd	r19, Y+10	; 0x0a
    345c:	4b 85       	ldd	r20, Y+11	; 0x0b
    345e:	5c 85       	ldd	r21, Y+12	; 0x0c
    3460:	62 1b       	sub	r22, r18
    3462:	73 0b       	sbc	r23, r19
    3464:	84 0b       	sbc	r24, r20
    3466:	95 0b       	sbc	r25, r21
    3468:	2c e3       	ldi	r18, 0x3C	; 60
    346a:	30 e0       	ldi	r19, 0x00	; 0
    346c:	40 e0       	ldi	r20, 0x00	; 0
    346e:	50 e0       	ldi	r21, 0x00	; 0
    3470:	0e 94 2c 22 	call	0x4458	; 0x4458 <__udivmodsi4>
    3474:	3a 87       	std	Y+10, r19	; 0x0a
    3476:	29 87       	std	Y+9, r18	; 0x09
    3478:	6d 85       	ldd	r22, Y+13	; 0x0d
    347a:	7e 85       	ldd	r23, Y+14	; 0x0e
    347c:	8f 85       	ldd	r24, Y+15	; 0x0f
    347e:	98 89       	ldd	r25, Y+16	; 0x10
    3480:	27 e0       	ldi	r18, 0x07	; 7
    3482:	30 e0       	ldi	r19, 0x00	; 0
    3484:	40 e0       	ldi	r20, 0x00	; 0
    3486:	50 e0       	ldi	r21, 0x00	; 0
    3488:	0e 94 2c 22 	call	0x4458	; 0x4458 <__udivmodsi4>
    348c:	ee 24       	eor	r14, r14
    348e:	e3 94       	inc	r14
    3490:	f1 2c       	mov	r15, r1
    3492:	02 c0       	rjmp	.+4      	; 0x3498 <__vector_7+0x23c>
    3494:	ee 0c       	add	r14, r14
    3496:	ff 1c       	adc	r15, r15
    3498:	6a 95       	dec	r22
    349a:	e2 f7       	brpl	.-8      	; 0x3494 <__vector_7+0x238>
    349c:	00 e0       	ldi	r16, 0x00	; 0
    349e:	10 e0       	ldi	r17, 0x00	; 0
    34a0:	1a c0       	rjmp	.+52     	; 0x34d6 <__vector_7+0x27a>
    34a2:	8d 81       	ldd	r24, Y+5	; 0x05
    34a4:	90 e0       	ldi	r25, 0x00	; 0
    34a6:	8e 21       	and	r24, r14
    34a8:	9f 21       	and	r25, r15
    34aa:	89 2b       	or	r24, r25
    34ac:	71 f0       	breq	.+28     	; 0x34ca <__vector_7+0x26e>
    34ae:	8e 81       	ldd	r24, Y+6	; 0x06
    34b0:	9f 81       	ldd	r25, Y+7	; 0x07
    34b2:	c8 16       	cp	r12, r24
    34b4:	d9 06       	cpc	r13, r25
    34b6:	4c f4       	brge	.+18     	; 0x34ca <__vector_7+0x26e>
    34b8:	49 85       	ldd	r20, Y+9	; 0x09
    34ba:	5a 85       	ldd	r21, Y+10	; 0x0a
    34bc:	48 17       	cp	r20, r24
    34be:	59 07       	cpc	r21, r25
    34c0:	24 f0       	brlt	.+8      	; 0x34ca <__vector_7+0x26e>
    34c2:	ea 81       	ldd	r30, Y+2	; 0x02
    34c4:	fb 81       	ldd	r31, Y+3	; 0x03
    34c6:	8c 81       	ldd	r24, Y+4	; 0x04
    34c8:	09 95       	icall
    34ca:	08 5f       	subi	r16, 0xF8	; 248
    34cc:	1f 4f       	sbci	r17, 0xFF	; 255
    34ce:	50 e0       	ldi	r21, 0x00	; 0
    34d0:	00 35       	cpi	r16, 0x50	; 80
    34d2:	15 07       	cpc	r17, r21
    34d4:	39 f1       	breq	.+78     	; 0x3524 <__vector_7+0x2c8>
    34d6:	48 e0       	ldi	r20, 0x08	; 8
    34d8:	50 e0       	ldi	r21, 0x00	; 0
    34da:	b8 01       	movw	r22, r16
    34dc:	ce 01       	movw	r24, r28
    34de:	01 96       	adiw	r24, 0x01	; 1
    34e0:	0e 94 c1 22 	call	0x4582	; 0x4582 <__eerd_block_m328p>
    34e4:	89 81       	ldd	r24, Y+1	; 0x01
    34e6:	8f 3f       	cpi	r24, 0xFF	; 255
    34e8:	e9 f0       	breq	.+58     	; 0x3524 <__vector_7+0x2c8>
    34ea:	8e 3f       	cpi	r24, 0xFE	; 254
    34ec:	71 f3       	breq	.-36     	; 0x34ca <__vector_7+0x26e>
    34ee:	88 23       	and	r24, r24
    34f0:	c1 f2       	breq	.-80     	; 0x34a2 <__vector_7+0x246>
    34f2:	81 30       	cpi	r24, 0x01	; 1
    34f4:	b9 f4       	brne	.+46     	; 0x3524 <__vector_7+0x2c8>
    34f6:	8d 81       	ldd	r24, Y+5	; 0x05
    34f8:	9e 81       	ldd	r25, Y+6	; 0x06
    34fa:	af 81       	ldd	r26, Y+7	; 0x07
    34fc:	b8 85       	ldd	r27, Y+8	; 0x08
    34fe:	40 91 1f 01 	lds	r20, 0x011F
    3502:	50 91 20 01 	lds	r21, 0x0120
    3506:	60 91 21 01 	lds	r22, 0x0121
    350a:	70 91 22 01 	lds	r23, 0x0122
    350e:	48 17       	cp	r20, r24
    3510:	59 07       	cpc	r21, r25
    3512:	6a 07       	cpc	r22, r26
    3514:	7b 07       	cpc	r23, r27
    3516:	c8 f6       	brcc	.-78     	; 0x34ca <__vector_7+0x26e>
    3518:	88 16       	cp	r8, r24
    351a:	99 06       	cpc	r9, r25
    351c:	aa 06       	cpc	r10, r26
    351e:	bb 06       	cpc	r11, r27
    3520:	a0 f2       	brcs	.-88     	; 0x34ca <__vector_7+0x26e>
    3522:	cf cf       	rjmp	.-98     	; 0x34c2 <__vector_7+0x266>
    3524:	80 92 1f 01 	sts	0x011F, r8
    3528:	90 92 20 01 	sts	0x0120, r9
    352c:	a0 92 21 01 	sts	0x0121, r10
    3530:	b0 92 22 01 	sts	0x0122, r11
    3534:	10 92 1e 01 	sts	0x011E, r1
    3538:	f2 ce       	rjmp	.-540    	; 0x331e <__vector_7+0xc2>
    353a:	cc 24       	eor	r12, r12
    353c:	ca 94       	dec	r12
    353e:	dc 2c       	mov	r13, r12
    3540:	89 cf       	rjmp	.-238    	; 0x3454 <__vector_7+0x1f8>

00003542 <__vector_4>:
    3542:	1f 92       	push	r1
    3544:	0f 92       	push	r0
    3546:	0f b6       	in	r0, 0x3f	; 63
    3548:	0f 92       	push	r0
    354a:	11 24       	eor	r1, r1
    354c:	8f 93       	push	r24
    354e:	9f 93       	push	r25
    3550:	86 b1       	in	r24, 0x06	; 6
    3552:	80 71       	andi	r24, 0x10	; 16
    3554:	90 91 16 01 	lds	r25, 0x0116
    3558:	92 30       	cpi	r25, 0x02	; 2
    355a:	21 f1       	breq	.+72     	; 0x35a4 <__vector_4+0x62>
    355c:	90 91 16 01 	lds	r25, 0x0116
    3560:	93 30       	cpi	r25, 0x03	; 3
    3562:	39 f0       	breq	.+14     	; 0x3572 <__vector_4+0x30>
    3564:	9f 91       	pop	r25
    3566:	8f 91       	pop	r24
    3568:	0f 90       	pop	r0
    356a:	0f be       	out	0x3f, r0	; 63
    356c:	0f 90       	pop	r0
    356e:	1f 90       	pop	r1
    3570:	18 95       	reti
    3572:	81 11       	cpse	r24, r1
    3574:	f7 cf       	rjmp	.-18     	; 0x3564 <__vector_4+0x22>
    3576:	80 91 84 00 	lds	r24, 0x0084
    357a:	90 91 85 00 	lds	r25, 0x0085
    357e:	90 93 15 01 	sts	0x0115, r25
    3582:	80 93 14 01 	sts	0x0114, r24
    3586:	80 91 68 00 	lds	r24, 0x0068
    358a:	8d 7f       	andi	r24, 0xFD	; 253
    358c:	80 93 68 00 	sts	0x0068, r24
    3590:	84 e0       	ldi	r24, 0x04	; 4
    3592:	80 93 16 01 	sts	0x0116, r24
    3596:	9f 91       	pop	r25
    3598:	8f 91       	pop	r24
    359a:	0f 90       	pop	r0
    359c:	0f be       	out	0x3f, r0	; 63
    359e:	0f 90       	pop	r0
    35a0:	1f 90       	pop	r1
    35a2:	18 95       	reti
    35a4:	88 23       	and	r24, r24
    35a6:	f1 f2       	breq	.-68     	; 0x3564 <__vector_4+0x22>
    35a8:	10 92 85 00 	sts	0x0085, r1
    35ac:	10 92 84 00 	sts	0x0084, r1
    35b0:	83 e0       	ldi	r24, 0x03	; 3
    35b2:	80 93 16 01 	sts	0x0116, r24
    35b6:	9f 91       	pop	r25
    35b8:	8f 91       	pop	r24
    35ba:	0f 90       	pop	r0
    35bc:	0f be       	out	0x3f, r0	; 63
    35be:	0f 90       	pop	r0
    35c0:	1f 90       	pop	r1
    35c2:	18 95       	reti

000035c4 <__vector_11>:
    35c4:	1f 92       	push	r1
    35c6:	0f 92       	push	r0
    35c8:	0f b6       	in	r0, 0x3f	; 63
    35ca:	0f 92       	push	r0
    35cc:	11 24       	eor	r1, r1
    35ce:	2f 93       	push	r18
    35d0:	3f 93       	push	r19
    35d2:	4f 93       	push	r20
    35d4:	5f 93       	push	r21
    35d6:	6f 93       	push	r22
    35d8:	7f 93       	push	r23
    35da:	8f 93       	push	r24
    35dc:	9f 93       	push	r25
    35de:	af 93       	push	r26
    35e0:	bf 93       	push	r27
    35e2:	ef 93       	push	r30
    35e4:	ff 93       	push	r31
    35e6:	80 91 16 01 	lds	r24, 0x0116
    35ea:	81 30       	cpi	r24, 0x01	; 1
    35ec:	61 f1       	breq	.+88     	; 0x3646 <__vector_11+0x82>
    35ee:	80 91 16 01 	lds	r24, 0x0116
    35f2:	83 30       	cpi	r24, 0x03	; 3
    35f4:	09 f1       	breq	.+66     	; 0x3638 <__vector_11+0x74>
    35f6:	80 91 6f 00 	lds	r24, 0x006F
    35fa:	8d 7f       	andi	r24, 0xFD	; 253
    35fc:	80 93 6f 00 	sts	0x006F, r24
    3600:	80 91 68 00 	lds	r24, 0x0068
    3604:	8d 7f       	andi	r24, 0xFD	; 253
    3606:	80 93 68 00 	sts	0x0068, r24
    360a:	10 92 16 01 	sts	0x0116, r1
    360e:	80 91 13 01 	lds	r24, 0x0113
    3612:	81 30       	cpi	r24, 0x01	; 1
    3614:	89 f1       	breq	.+98     	; 0x3678 <__vector_11+0xb4>
    3616:	ff 91       	pop	r31
    3618:	ef 91       	pop	r30
    361a:	bf 91       	pop	r27
    361c:	af 91       	pop	r26
    361e:	9f 91       	pop	r25
    3620:	8f 91       	pop	r24
    3622:	7f 91       	pop	r23
    3624:	6f 91       	pop	r22
    3626:	5f 91       	pop	r21
    3628:	4f 91       	pop	r20
    362a:	3f 91       	pop	r19
    362c:	2f 91       	pop	r18
    362e:	0f 90       	pop	r0
    3630:	0f be       	out	0x3f, r0	; 63
    3632:	0f 90       	pop	r0
    3634:	1f 90       	pop	r1
    3636:	18 95       	reti
    3638:	8f ef       	ldi	r24, 0xFF	; 255
    363a:	9f ef       	ldi	r25, 0xFF	; 255
    363c:	90 93 15 01 	sts	0x0115, r25
    3640:	80 93 14 01 	sts	0x0114, r24
    3644:	d8 cf       	rjmp	.-80     	; 0x35f6 <__vector_11+0x32>
    3646:	45 98       	cbi	0x08, 5	; 8
    3648:	80 91 81 00 	lds	r24, 0x0081
    364c:	88 7f       	andi	r24, 0xF8	; 248
    364e:	80 93 81 00 	sts	0x0081, r24
    3652:	80 e7       	ldi	r24, 0x70	; 112
    3654:	97 e1       	ldi	r25, 0x17	; 23
    3656:	90 93 89 00 	sts	0x0089, r25
    365a:	80 93 88 00 	sts	0x0088, r24
    365e:	10 92 85 00 	sts	0x0085, r1
    3662:	10 92 84 00 	sts	0x0084, r1
    3666:	80 91 81 00 	lds	r24, 0x0081
    366a:	84 60       	ori	r24, 0x04	; 4
    366c:	80 93 81 00 	sts	0x0081, r24
    3670:	82 e0       	ldi	r24, 0x02	; 2
    3672:	80 93 16 01 	sts	0x0116, r24
    3676:	cf cf       	rjmp	.-98     	; 0x3616 <__vector_11+0x52>
    3678:	80 91 16 01 	lds	r24, 0x0116
    367c:	81 11       	cpse	r24, r1
    367e:	cb cf       	rjmp	.-106    	; 0x3616 <__vector_11+0x52>
    3680:	0e 94 d5 0c 	call	0x19aa	; 0x19aa <send_pulse.part.1.2007>
    3684:	c8 cf       	rjmp	.-112    	; 0x3616 <__vector_11+0x52>

00003686 <__vector_default>:
    3686:	1f 92       	push	r1
    3688:	0f 92       	push	r0
    368a:	0f b6       	in	r0, 0x3f	; 63
    368c:	0f 92       	push	r0
    368e:	11 24       	eor	r1, r1
    3690:	5c 9a       	sbi	0x0b, 4	; 11
    3692:	ff cf       	rjmp	.-2      	; 0x3692 <__vector_default+0xc>

00003694 <__vector_18>:
    3694:	1f 92       	push	r1
    3696:	0f 92       	push	r0
    3698:	0f b6       	in	r0, 0x3f	; 63
    369a:	0f 92       	push	r0
    369c:	11 24       	eor	r1, r1
    369e:	8f 93       	push	r24
    36a0:	9f 93       	push	r25
    36a2:	ef 93       	push	r30
    36a4:	ff 93       	push	r31
    36a6:	80 91 12 01 	lds	r24, 0x0112
    36aa:	90 91 c6 00 	lds	r25, 0x00C6
    36ae:	e8 2f       	mov	r30, r24
    36b0:	f0 e0       	ldi	r31, 0x00	; 0
    36b2:	e9 5a       	subi	r30, 0xA9	; 169
    36b4:	f8 4f       	sbci	r31, 0xF8	; 248
    36b6:	90 83       	st	Z, r25
    36b8:	8f 5f       	subi	r24, 0xFF	; 255
    36ba:	80 93 12 01 	sts	0x0112, r24
    36be:	80 91 12 01 	lds	r24, 0x0112
    36c2:	80 34       	cpi	r24, 0x40	; 64
    36c4:	91 f0       	breq	.+36     	; 0x36ea <__vector_18+0x56>
    36c6:	90 91 12 01 	lds	r25, 0x0112
    36ca:	80 91 56 07 	lds	r24, 0x0756
    36ce:	98 13       	cpse	r25, r24
    36d0:	03 c0       	rjmp	.+6      	; 0x36d8 <__vector_18+0x44>
    36d2:	81 e0       	ldi	r24, 0x01	; 1
    36d4:	80 93 11 01 	sts	0x0111, r24
    36d8:	ff 91       	pop	r31
    36da:	ef 91       	pop	r30
    36dc:	9f 91       	pop	r25
    36de:	8f 91       	pop	r24
    36e0:	0f 90       	pop	r0
    36e2:	0f be       	out	0x3f, r0	; 63
    36e4:	0f 90       	pop	r0
    36e6:	1f 90       	pop	r1
    36e8:	18 95       	reti
    36ea:	10 92 12 01 	sts	0x0112, r1
    36ee:	eb cf       	rjmp	.-42     	; 0x36c6 <__vector_18+0x32>

000036f0 <__vector_20>:
    36f0:	1f 92       	push	r1
    36f2:	0f 92       	push	r0
    36f4:	0f b6       	in	r0, 0x3f	; 63
    36f6:	0f 92       	push	r0
    36f8:	11 24       	eor	r1, r1
    36fa:	8f 93       	push	r24
    36fc:	9f 93       	push	r25
    36fe:	ef 93       	push	r30
    3700:	ff 93       	push	r31
    3702:	80 91 10 01 	lds	r24, 0x0110
    3706:	90 91 97 07 	lds	r25, 0x0797
    370a:	98 17       	cp	r25, r24
    370c:	a1 f0       	breq	.+40     	; 0x3736 <__vector_20+0x46>
    370e:	80 91 0f 01 	lds	r24, 0x010F
    3712:	81 30       	cpi	r24, 0x01	; 1
    3714:	81 f0       	breq	.+32     	; 0x3736 <__vector_20+0x46>
    3716:	80 91 10 01 	lds	r24, 0x0110
    371a:	e8 2f       	mov	r30, r24
    371c:	f0 e0       	ldi	r31, 0x00	; 0
    371e:	e8 56       	subi	r30, 0x68	; 104
    3720:	f8 4f       	sbci	r31, 0xF8	; 248
    3722:	90 81       	ld	r25, Z
    3724:	90 93 c6 00 	sts	0x00C6, r25
    3728:	8f 5f       	subi	r24, 0xFF	; 255
    372a:	80 93 10 01 	sts	0x0110, r24
    372e:	80 91 10 01 	lds	r24, 0x0110
    3732:	80 31       	cpi	r24, 0x10	; 16
    3734:	49 f0       	breq	.+18     	; 0x3748 <__vector_20+0x58>
    3736:	ff 91       	pop	r31
    3738:	ef 91       	pop	r30
    373a:	9f 91       	pop	r25
    373c:	8f 91       	pop	r24
    373e:	0f 90       	pop	r0
    3740:	0f be       	out	0x3f, r0	; 63
    3742:	0f 90       	pop	r0
    3744:	1f 90       	pop	r1
    3746:	18 95       	reti
    3748:	10 92 10 01 	sts	0x0110, r1
    374c:	f4 cf       	rjmp	.-24     	; 0x3736 <__vector_20+0x46>

0000374e <__vector_17>:
    374e:	6f b6       	in	r6, 0x3f	; 63
    3750:	4a 94       	dec	r4
    3752:	41 f0       	breq	.+16     	; 0x3764 <spi_stc_last_byte>
    3754:	6f be       	out	0x3f, r6	; 63
    3756:	3f 01       	movw	r6, r30
    3758:	f1 01       	movw	r30, r2
    375a:	21 90       	ld	r2, Z+
    375c:	2e bc       	out	0x2e, r2	; 46
    375e:	1f 01       	movw	r2, r30
    3760:	f3 01       	movw	r30, r6
    3762:	18 95       	reti

00003764 <spi_stc_last_byte>:
    3764:	6f be       	out	0x3f, r6	; 63
    3766:	18 95       	reti

00003768 <__vector_14>:
    3768:	1f 92       	push	r1
    376a:	0f 92       	push	r0
    376c:	0f b6       	in	r0, 0x3f	; 63
    376e:	0f 92       	push	r0
    3770:	11 24       	eor	r1, r1
    3772:	2f 93       	push	r18
    3774:	3f 93       	push	r19
    3776:	8f 93       	push	r24
    3778:	9f 93       	push	r25
    377a:	2a 9a       	sbi	0x05, 2	; 5
    377c:	29 9a       	sbi	0x05, 1	; 5
    377e:	29 98       	cbi	0x05, 1	; 5
    3780:	2a 98       	cbi	0x05, 2	; 5
    3782:	80 91 0e 01 	lds	r24, 0x010E
    3786:	8c 71       	andi	r24, 0x1C	; 28
    3788:	8c 31       	cpi	r24, 0x1C	; 28
    378a:	31 f1       	breq	.+76     	; 0x37d8 <__vector_14+0x70>
    378c:	80 91 0e 01 	lds	r24, 0x010E
    3790:	86 95       	lsr	r24
    3792:	86 95       	lsr	r24
    3794:	8f 5f       	subi	r24, 0xFF	; 255
    3796:	87 70       	andi	r24, 0x07	; 7
    3798:	88 0f       	add	r24, r24
    379a:	88 0f       	add	r24, r24
    379c:	90 91 0e 01 	lds	r25, 0x010E
    37a0:	93 7e       	andi	r25, 0xE3	; 227
    37a2:	98 2b       	or	r25, r24
    37a4:	90 93 0e 01 	sts	0x010E, r25
    37a8:	20 91 0e 01 	lds	r18, 0x010E
    37ac:	26 95       	lsr	r18
    37ae:	26 95       	lsr	r18
    37b0:	27 70       	andi	r18, 0x07	; 7
    37b2:	81 e0       	ldi	r24, 0x01	; 1
    37b4:	90 e0       	ldi	r25, 0x00	; 0
    37b6:	01 c0       	rjmp	.+2      	; 0x37ba <__vector_14+0x52>
    37b8:	88 0f       	add	r24, r24
    37ba:	2a 95       	dec	r18
    37bc:	ea f7       	brpl	.-6      	; 0x37b8 <__vector_14+0x50>
    37be:	80 95       	com	r24
    37c0:	8e bd       	out	0x2e, r24	; 46
    37c2:	81 e6       	ldi	r24, 0x61	; 97
    37c4:	48 2e       	mov	r4, r24
    37c6:	9f 91       	pop	r25
    37c8:	8f 91       	pop	r24
    37ca:	3f 91       	pop	r19
    37cc:	2f 91       	pop	r18
    37ce:	0f 90       	pop	r0
    37d0:	0f be       	out	0x3f, r0	; 63
    37d2:	0f 90       	pop	r0
    37d4:	1f 90       	pop	r1
    37d6:	18 95       	reti
    37d8:	80 91 0e 01 	lds	r24, 0x010E
    37dc:	83 7e       	andi	r24, 0xE3	; 227
    37de:	80 93 0e 01 	sts	0x010E, r24
    37e2:	80 91 0e 01 	lds	r24, 0x010E
    37e6:	80 fd       	sbrc	r24, 0
    37e8:	06 c0       	rjmp	.+12     	; 0x37f6 <__vector_14+0x8e>
    37ea:	80 91 08 01 	lds	r24, 0x0108
    37ee:	90 91 09 01 	lds	r25, 0x0109
    37f2:	1c 01       	movw	r2, r24
    37f4:	d9 cf       	rjmp	.-78     	; 0x37a8 <__vector_14+0x40>
    37f6:	20 91 08 01 	lds	r18, 0x0108
    37fa:	30 91 09 01 	lds	r19, 0x0109
    37fe:	80 91 06 01 	lds	r24, 0x0106
    3802:	90 91 07 01 	lds	r25, 0x0107
    3806:	90 93 09 01 	sts	0x0109, r25
    380a:	80 93 08 01 	sts	0x0108, r24
    380e:	30 93 07 01 	sts	0x0107, r19
    3812:	20 93 06 01 	sts	0x0106, r18
    3816:	20 91 0e 01 	lds	r18, 0x010E
    381a:	2e 7f       	andi	r18, 0xFE	; 254
    381c:	20 93 0e 01 	sts	0x010E, r18
    3820:	1c 01       	movw	r2, r24
    3822:	c2 cf       	rjmp	.-124    	; 0x37a8 <__vector_14+0x40>

00003824 <main>:
    3824:	cf 93       	push	r28
    3826:	df 93       	push	r29
    3828:	cd b7       	in	r28, 0x3d	; 61
    382a:	de b7       	in	r29, 0x3e	; 62
    382c:	a1 97       	sbiw	r28, 0x21	; 33
    382e:	0f b6       	in	r0, 0x3f	; 63
    3830:	f8 94       	cli
    3832:	de bf       	out	0x3e, r29	; 62
    3834:	0f be       	out	0x3f, r0	; 63
    3836:	cd bf       	out	0x3d, r28	; 61
    3838:	f8 94       	cli
    383a:	88 e1       	ldi	r24, 0x18	; 24
    383c:	0f b6       	in	r0, 0x3f	; 63
    383e:	f8 94       	cli
    3840:	80 93 60 00 	sts	0x0060, r24
    3844:	10 92 60 00 	sts	0x0060, r1
    3848:	0f be       	out	0x3f, r0	; 63
    384a:	84 b1       	in	r24, 0x04	; 4
    384c:	86 60       	ori	r24, 0x06	; 6
    384e:	84 b9       	out	0x04, r24	; 4
    3850:	54 9a       	sbi	0x0a, 4	; 10
    3852:	2a 9a       	sbi	0x05, 2	; 5
    3854:	84 b1       	in	r24, 0x04	; 4
    3856:	8c 62       	ori	r24, 0x2C	; 44
    3858:	84 b9       	out	0x04, r24	; 4
    385a:	8c b5       	in	r24, 0x2c	; 44
    385c:	80 6d       	ori	r24, 0xD0	; 208
    385e:	8c bd       	out	0x2c, r24	; 44
    3860:	53 9a       	sbi	0x0a, 3	; 10
    3862:	82 e0       	ldi	r24, 0x02	; 2
    3864:	84 bd       	out	0x24, r24	; 36
    3866:	8f e0       	ldi	r24, 0x0F	; 15
    3868:	87 bd       	out	0x27, r24	; 39
    386a:	85 b5       	in	r24, 0x25	; 37
    386c:	85 60       	ori	r24, 0x05	; 5
    386e:	85 bd       	out	0x25, r24	; 37
    3870:	80 91 b0 00 	lds	r24, 0x00B0
    3874:	82 60       	ori	r24, 0x02	; 2
    3876:	80 93 b0 00 	sts	0x00B0, r24
    387a:	8c e7       	ldi	r24, 0x7C	; 124
    387c:	80 93 b3 00 	sts	0x00B3, r24
    3880:	80 91 70 00 	lds	r24, 0x0070
    3884:	82 60       	ori	r24, 0x02	; 2
    3886:	80 93 70 00 	sts	0x0070, r24
    388a:	80 91 b1 00 	lds	r24, 0x00B1
    388e:	87 60       	ori	r24, 0x07	; 7
    3890:	80 93 b1 00 	sts	0x00B1, r24
    3894:	80 e0       	ldi	r24, 0x00	; 0
    3896:	0e 94 25 0d 	call	0x1a4a	; 0x1a4a <select_playlist_item.2051>
    389a:	51 9a       	sbi	0x0a, 1	; 10
    389c:	10 92 c5 00 	sts	0x00C5, r1
    38a0:	87 e6       	ldi	r24, 0x67	; 103
    38a2:	80 93 c4 00 	sts	0x00C4, r24
    38a6:	80 91 c0 00 	lds	r24, 0x00C0
    38aa:	8d 7f       	andi	r24, 0xFD	; 253
    38ac:	80 93 c0 00 	sts	0x00C0, r24
    38b0:	80 91 c2 00 	lds	r24, 0x00C2
    38b4:	86 60       	ori	r24, 0x06	; 6
    38b6:	80 93 c2 00 	sts	0x00C2, r24
    38ba:	80 91 c1 00 	lds	r24, 0x00C1
    38be:	88 60       	ori	r24, 0x08	; 8
    38c0:	80 93 c1 00 	sts	0x00C1, r24
    38c4:	80 91 c1 00 	lds	r24, 0x00C1
    38c8:	80 61       	ori	r24, 0x10	; 16
    38ca:	80 93 c1 00 	sts	0x00C1, r24
    38ce:	80 91 c1 00 	lds	r24, 0x00C1
    38d2:	80 68       	ori	r24, 0x80	; 128
    38d4:	80 93 c1 00 	sts	0x00C1, r24
    38d8:	80 91 c1 00 	lds	r24, 0x00C1
    38dc:	80 64       	ori	r24, 0x40	; 64
    38de:	80 93 c1 00 	sts	0x00C1, r24
    38e2:	78 94       	sei
    38e4:	80 91 16 01 	lds	r24, 0x0116
    38e8:	88 23       	and	r24, r24
    38ea:	09 f4       	brne	.+2      	; 0x38ee <main+0xca>
    38ec:	cf c2       	rjmp	.+1438   	; 0x3e8c <main+0x668>
    38ee:	83 e0       	ldi	r24, 0x03	; 3
    38f0:	80 93 7e 00 	sts	0x007E, r24
    38f4:	80 e4       	ldi	r24, 0x40	; 64
    38f6:	80 93 7c 00 	sts	0x007C, r24
    38fa:	87 e8       	ldi	r24, 0x87	; 135
    38fc:	80 93 7a 00 	sts	0x007A, r24
    3900:	10 92 19 01 	sts	0x0119, r1
    3904:	80 91 7a 00 	lds	r24, 0x007A
    3908:	88 64       	ori	r24, 0x48	; 72
    390a:	80 93 7a 00 	sts	0x007A, r24
    390e:	82 e4       	ldi	r24, 0x42	; 66
    3910:	0e 94 f9 0d 	call	0x1bf2	; 0x1bf2 <report.2058>
    3914:	80 e0       	ldi	r24, 0x00	; 0
    3916:	0e 94 4c 0d 	call	0x1a98	; 0x1a98 <cube_start>
    391a:	80 91 ae 07 	lds	r24, 0x07AE
    391e:	80 93 24 01 	sts	0x0124, r24
    3922:	81 30       	cpi	r24, 0x01	; 1
    3924:	09 f4       	brne	.+2      	; 0x3928 <main+0x104>
    3926:	a0 c2       	rjmp	.+1344   	; 0x3e68 <main+0x644>
    3928:	82 30       	cpi	r24, 0x02	; 2
    392a:	09 f4       	brne	.+2      	; 0x392e <main+0x10a>
    392c:	97 c2       	rjmp	.+1326   	; 0x3e5c <main+0x638>
    392e:	10 92 24 01 	sts	0x0124, r1
    3932:	ce 01       	movw	r24, r28
    3934:	41 96       	adiw	r24, 0x11	; 17
    3936:	9b 8f       	std	Y+27, r25	; 0x1b
    3938:	8a 8f       	std	Y+26, r24	; 0x1a
    393a:	45 e1       	ldi	r20, 0x15	; 21
    393c:	84 2e       	mov	r8, r20
    393e:	91 2c       	mov	r9, r1
    3940:	8c 0e       	add	r8, r28
    3942:	9d 1e       	adc	r9, r29
    3944:	fe 01       	movw	r30, r28
    3946:	78 96       	adiw	r30, 0x18	; 24
    3948:	f9 a3       	std	Y+33, r31	; 0x21
    394a:	e8 a3       	std	Y+32, r30	; 0x20
    394c:	ce 01       	movw	r24, r28
    394e:	01 96       	adiw	r24, 0x01	; 1
    3950:	9d 8f       	std	Y+29, r25	; 0x1d
    3952:	8c 8f       	std	Y+28, r24	; 0x1c
    3954:	fe 01       	movw	r30, r28
    3956:	32 96       	adiw	r30, 0x02	; 2
    3958:	ff 8f       	std	Y+31, r31	; 0x1f
    395a:	ee 8f       	std	Y+30, r30	; 0x1e
    395c:	59 e0       	ldi	r21, 0x09	; 9
    395e:	e5 2e       	mov	r14, r21
    3960:	f1 2c       	mov	r15, r1
    3962:	ec 0e       	add	r14, r28
    3964:	fd 1e       	adc	r15, r29
    3966:	65 e5       	ldi	r22, 0x55	; 85
    3968:	56 2e       	mov	r5, r22
    396a:	80 91 11 01 	lds	r24, 0x0111
    396e:	81 30       	cpi	r24, 0x01	; 1
    3970:	61 f0       	breq	.+24     	; 0x398a <main+0x166>
    3972:	80 91 12 01 	lds	r24, 0x0112
    3976:	90 91 56 07 	lds	r25, 0x0756
    397a:	89 1b       	sub	r24, r25
    397c:	20 91 12 01 	lds	r18, 0x0112
    3980:	29 17       	cp	r18, r25
    3982:	08 f4       	brcc	.+2      	; 0x3986 <main+0x162>
    3984:	80 5c       	subi	r24, 0xC0	; 192
    3986:	81 11       	cpse	r24, r1
    3988:	64 c0       	rjmp	.+200    	; 0x3a52 <main+0x22e>
    398a:	10 91 24 01 	lds	r17, 0x0124
    398e:	11 30       	cpi	r17, 0x01	; 1
    3990:	81 f0       	breq	.+32     	; 0x39b2 <main+0x18e>
    3992:	12 30       	cpi	r17, 0x02	; 2
    3994:	51 f7       	brne	.-44     	; 0x396a <main+0x146>
    3996:	0e 94 cd 0c 	call	0x199a	; 0x199a <centisecs>
    399a:	90 93 26 01 	sts	0x0126, r25
    399e:	80 93 25 01 	sts	0x0125, r24
    39a2:	20 91 27 01 	lds	r18, 0x0127
    39a6:	30 91 28 01 	lds	r19, 0x0128
    39aa:	28 17       	cp	r18, r24
    39ac:	39 07       	cpc	r19, r25
    39ae:	08 f4       	brcc	.+2      	; 0x39b2 <main+0x18e>
    39b0:	91 c0       	rjmp	.+290    	; 0x3ad4 <main+0x2b0>
    39b2:	80 91 0e 01 	lds	r24, 0x010E
    39b6:	80 fd       	sbrc	r24, 0
    39b8:	d8 cf       	rjmp	.-80     	; 0x396a <main+0x146>
    39ba:	0e 94 cd 0c 	call	0x199a	; 0x199a <centisecs>
    39be:	90 93 26 01 	sts	0x0126, r25
    39c2:	80 93 25 01 	sts	0x0125, r24
    39c6:	0e 94 00 0d 	call	0x1a00	; 0x1a00 <hcsr04_get_distance_in_cm>
    39ca:	80 93 02 01 	sts	0x0102, r24
    39ce:	0e 94 00 0d 	call	0x1a00	; 0x1a00 <hcsr04_get_distance_in_cm>
    39d2:	80 93 03 01 	sts	0x0103, r24
    39d6:	f8 94       	cli
    39d8:	20 91 1a 01 	lds	r18, 0x011A
    39dc:	30 91 1b 01 	lds	r19, 0x011B
    39e0:	78 94       	sei
    39e2:	36 95       	lsr	r19
    39e4:	27 95       	ror	r18
    39e6:	36 95       	lsr	r19
    39e8:	27 95       	ror	r18
    39ea:	20 93 04 01 	sts	0x0104, r18
    39ee:	f8 94       	cli
    39f0:	20 91 1c 01 	lds	r18, 0x011C
    39f4:	30 91 1d 01 	lds	r19, 0x011D
    39f8:	78 94       	sei
    39fa:	36 95       	lsr	r19
    39fc:	27 95       	ror	r18
    39fe:	36 95       	lsr	r19
    3a00:	27 95       	ror	r18
    3a02:	20 93 05 01 	sts	0x0105, r18
    3a06:	20 91 29 01 	lds	r18, 0x0129
    3a0a:	30 91 2a 01 	lds	r19, 0x012A
    3a0e:	f9 01       	movw	r30, r18
    3a10:	34 96       	adiw	r30, 0x04	; 4
    3a12:	45 91       	lpm	r20, Z+
    3a14:	54 91       	lpm	r21, Z+
    3a16:	fa 01       	movw	r30, r20
    3a18:	30 97       	sbiw	r30, 0x00	; 0
    3a1a:	61 f0       	breq	.+24     	; 0x3a34 <main+0x210>
    3a1c:	09 95       	icall
    3a1e:	f8 94       	cli
    3a20:	80 91 0e 01 	lds	r24, 0x010E
    3a24:	81 60       	ori	r24, 0x01	; 1
    3a26:	80 93 0e 01 	sts	0x010E, r24
    3a2a:	78 94       	sei
    3a2c:	20 91 29 01 	lds	r18, 0x0129
    3a30:	30 91 2a 01 	lds	r19, 0x012A
    3a34:	f9 01       	movw	r30, r18
    3a36:	37 96       	adiw	r30, 0x07	; 7
    3a38:	24 91       	lpm	r18, Z+
    3a3a:	00 91 25 01 	lds	r16, 0x0125
    3a3e:	10 91 26 01 	lds	r17, 0x0126
    3a42:	02 0f       	add	r16, r18
    3a44:	11 1d       	adc	r17, r1
    3a46:	0e 94 cd 0c 	call	0x199a	; 0x199a <centisecs>
    3a4a:	80 17       	cp	r24, r16
    3a4c:	91 07       	cpc	r25, r17
    3a4e:	d8 f3       	brcs	.-10     	; 0x3a46 <main+0x222>
    3a50:	8c cf       	rjmp	.-232    	; 0x396a <main+0x146>
    3a52:	e9 2f       	mov	r30, r25
    3a54:	f0 e0       	ldi	r31, 0x00	; 0
    3a56:	e9 5a       	subi	r30, 0xA9	; 169
    3a58:	f8 4f       	sbci	r31, 0xF8	; 248
    3a5a:	80 81       	ld	r24, Z
    3a5c:	9f 5f       	subi	r25, 0xFF	; 255
    3a5e:	90 34       	cpi	r25, 0x40	; 64
    3a60:	41 f0       	breq	.+16     	; 0x3a72 <main+0x24e>
    3a62:	90 93 56 07 	sts	0x0756, r25
    3a66:	8e 37       	cpi	r24, 0x7E	; 126
    3a68:	41 f0       	breq	.+16     	; 0x3a7a <main+0x256>
    3a6a:	80 e4       	ldi	r24, 0x40	; 64
    3a6c:	0e 94 f9 0d 	call	0x1bf2	; 0x1bf2 <report.2058>
    3a70:	8c cf       	rjmp	.-232    	; 0x398a <main+0x166>
    3a72:	10 92 56 07 	sts	0x0756, r1
    3a76:	8e 37       	cpi	r24, 0x7E	; 126
    3a78:	c1 f7       	brne	.-16     	; 0x3a6a <main+0x246>
    3a7a:	0e 94 9d 0d 	call	0x1b3a	; 0x1b3a <serial_read_blocking>
    3a7e:	8e 37       	cpi	r24, 0x7E	; 126
    3a80:	09 f4       	brne	.+2      	; 0x3a84 <main+0x260>
    3a82:	40 c0       	rjmp	.+128    	; 0x3b04 <main+0x2e0>
    3a84:	8a 32       	cpi	r24, 0x2A	; 42
    3a86:	09 f4       	brne	.+2      	; 0x3a8a <main+0x266>
    3a88:	80 cf       	rjmp	.-256    	; 0x398a <main+0x166>
    3a8a:	8e 32       	cpi	r24, 0x2E	; 46
    3a8c:	89 f1       	breq	.+98     	; 0x3af0 <main+0x2cc>
    3a8e:	85 34       	cpi	r24, 0x45	; 69
    3a90:	f1 f1       	breq	.+124    	; 0x3b0e <main+0x2ea>
    3a92:	80 35       	cpi	r24, 0x50	; 80
    3a94:	09 f4       	brne	.+2      	; 0x3a98 <main+0x274>
    3a96:	61 c0       	rjmp	.+194    	; 0x3b5a <main+0x336>
    3a98:	84 35       	cpi	r24, 0x54	; 84
    3a9a:	09 f4       	brne	.+2      	; 0x3a9e <main+0x27a>
    3a9c:	4d c0       	rjmp	.+154    	; 0x3b38 <main+0x314>
    3a9e:	84 37       	cpi	r24, 0x74	; 116
    3aa0:	09 f4       	brne	.+2      	; 0x3aa4 <main+0x280>
    3aa2:	e2 c0       	rjmp	.+452    	; 0x3c68 <main+0x444>
    3aa4:	83 35       	cpi	r24, 0x53	; 83
    3aa6:	09 f4       	brne	.+2      	; 0x3aaa <main+0x286>
    3aa8:	f3 c0       	rjmp	.+486    	; 0x3c90 <main+0x46c>
    3aaa:	85 36       	cpi	r24, 0x65	; 101
    3aac:	09 f4       	brne	.+2      	; 0x3ab0 <main+0x28c>
    3aae:	15 c1       	rjmp	.+554    	; 0x3cda <main+0x4b6>
    3ab0:	81 36       	cpi	r24, 0x61	; 97
    3ab2:	09 f4       	brne	.+2      	; 0x3ab6 <main+0x292>
    3ab4:	28 c1       	rjmp	.+592    	; 0x3d06 <main+0x4e2>
    3ab6:	81 34       	cpi	r24, 0x41	; 65
    3ab8:	09 f4       	brne	.+2      	; 0x3abc <main+0x298>
    3aba:	53 c1       	rjmp	.+678    	; 0x3d62 <main+0x53e>
    3abc:	83 36       	cpi	r24, 0x63	; 99
    3abe:	09 f4       	brne	.+2      	; 0x3ac2 <main+0x29e>
    3ac0:	82 c1       	rjmp	.+772    	; 0x3dc6 <main+0x5a2>
    3ac2:	83 34       	cpi	r24, 0x43	; 67
    3ac4:	09 f4       	brne	.+2      	; 0x3ac8 <main+0x2a4>
    3ac6:	87 c0       	rjmp	.+270    	; 0x3bd6 <main+0x3b2>
    3ac8:	8f e3       	ldi	r24, 0x3F	; 63
    3aca:	0e 94 f9 0d 	call	0x1bf2	; 0x1bf2 <report.2058>
    3ace:	10 91 24 01 	lds	r17, 0x0124
    3ad2:	5d cf       	rjmp	.-326    	; 0x398e <main+0x16a>
    3ad4:	80 91 2b 01 	lds	r24, 0x012B
    3ad8:	82 33       	cpi	r24, 0x32	; 50
    3ada:	31 f0       	breq	.+12     	; 0x3ae8 <main+0x2c4>
    3adc:	8f 5f       	subi	r24, 0xFF	; 255
    3ade:	0e 94 25 0d 	call	0x1a4a	; 0x1a4a <select_playlist_item.2051>
    3ae2:	0e 94 8c 18 	call	0x3118	; 0x3118 <init_current_effect.2061>
    3ae6:	65 cf       	rjmp	.-310    	; 0x39b2 <main+0x18e>
    3ae8:	80 e0       	ldi	r24, 0x00	; 0
    3aea:	0e 94 25 0d 	call	0x1a4a	; 0x1a4a <select_playlist_item.2051>
    3aee:	f9 cf       	rjmp	.-14     	; 0x3ae2 <main+0x2be>
    3af0:	88 e2       	ldi	r24, 0x28	; 40
    3af2:	0e 94 f9 0d 	call	0x1bf2	; 0x1bf2 <report.2058>
    3af6:	10 92 24 01 	sts	0x0124, r1
    3afa:	10 e0       	ldi	r17, 0x00	; 0
    3afc:	89 e2       	ldi	r24, 0x29	; 41
    3afe:	0e 94 f9 0d 	call	0x1bf2	; 0x1bf2 <report.2058>
    3b02:	45 cf       	rjmp	.-374    	; 0x398e <main+0x16a>
    3b04:	0e 94 7c 0d 	call	0x1af8	; 0x1af8 <serial_ungetc>
    3b08:	10 91 24 01 	lds	r17, 0x0124
    3b0c:	40 cf       	rjmp	.-384    	; 0x398e <main+0x16a>
    3b0e:	88 e2       	ldi	r24, 0x28	; 40
    3b10:	0e 94 f9 0d 	call	0x1bf2	; 0x1bf2 <report.2058>
    3b14:	61 e0       	ldi	r22, 0x01	; 1
    3b16:	70 e0       	ldi	r23, 0x00	; 0
    3b18:	8a 8d       	ldd	r24, Y+26	; 0x1a
    3b1a:	9b 8d       	ldd	r25, Y+27	; 0x1b
    3b1c:	0e 94 24 0e 	call	0x1c48	; 0x1c48 <serial_to_sram>
    3b20:	89 2b       	or	r24, r25
    3b22:	a9 f0       	breq	.+42     	; 0x3b4e <main+0x32a>
    3b24:	89 89       	ldd	r24, Y+17	; 0x11
    3b26:	80 32       	cpi	r24, 0x20	; 32
    3b28:	08 f4       	brcc	.+2      	; 0x3b2c <main+0x308>
    3b2a:	73 c1       	rjmp	.+742    	; 0x3e12 <main+0x5ee>
    3b2c:	81 e0       	ldi	r24, 0x01	; 1
    3b2e:	0e 94 bb 0d 	call	0x1b76	; 0x1b76 <serial_send>
    3b32:	10 91 24 01 	lds	r17, 0x0124
    3b36:	e2 cf       	rjmp	.-60     	; 0x3afc <main+0x2d8>
    3b38:	88 e2       	ldi	r24, 0x28	; 40
    3b3a:	0e 94 f9 0d 	call	0x1bf2	; 0x1bf2 <report.2058>
    3b3e:	64 e0       	ldi	r22, 0x04	; 4
    3b40:	70 e0       	ldi	r23, 0x00	; 0
    3b42:	8a 8d       	ldd	r24, Y+26	; 0x1a
    3b44:	9b 8d       	ldd	r25, Y+27	; 0x1b
    3b46:	0e 94 24 0e 	call	0x1c48	; 0x1c48 <serial_to_sram>
    3b4a:	04 97       	sbiw	r24, 0x04	; 4
    3b4c:	10 f5       	brcc	.+68     	; 0x3b92 <main+0x36e>
    3b4e:	80 e0       	ldi	r24, 0x00	; 0
    3b50:	0e 94 bb 0d 	call	0x1b76	; 0x1b76 <serial_send>
    3b54:	10 91 24 01 	lds	r17, 0x0124
    3b58:	d1 cf       	rjmp	.-94     	; 0x3afc <main+0x2d8>
    3b5a:	88 e2       	ldi	r24, 0x28	; 40
    3b5c:	0e 94 f9 0d 	call	0x1bf2	; 0x1bf2 <report.2058>
    3b60:	61 e0       	ldi	r22, 0x01	; 1
    3b62:	70 e0       	ldi	r23, 0x00	; 0
    3b64:	8a 8d       	ldd	r24, Y+26	; 0x1a
    3b66:	9b 8d       	ldd	r25, Y+27	; 0x1b
    3b68:	0e 94 24 0e 	call	0x1c48	; 0x1c48 <serial_to_sram>
    3b6c:	89 2b       	or	r24, r25
    3b6e:	79 f3       	breq	.-34     	; 0x3b4e <main+0x32a>
    3b70:	e9 89       	ldd	r30, Y+17	; 0x11
    3b72:	e6 30       	cpi	r30, 0x06	; 6
    3b74:	d8 f6       	brcc	.-74     	; 0x3b2c <main+0x308>
    3b76:	82 e0       	ldi	r24, 0x02	; 2
    3b78:	80 93 24 01 	sts	0x0124, r24
    3b7c:	f0 e0       	ldi	r31, 0x00	; 0
    3b7e:	e4 57       	subi	r30, 0x74	; 116
    3b80:	f7 4f       	sbci	r31, 0xF7	; 247
    3b82:	80 81       	ld	r24, Z
    3b84:	0e 94 25 0d 	call	0x1a4a	; 0x1a4a <select_playlist_item.2051>
    3b88:	0e 94 8c 18 	call	0x3118	; 0x3118 <init_current_effect.2061>
    3b8c:	10 91 24 01 	lds	r17, 0x0124
    3b90:	b5 cf       	rjmp	.-150    	; 0x3afc <main+0x2d8>
    3b92:	f8 94       	cli
    3b94:	49 89       	ldd	r20, Y+17	; 0x11
    3b96:	5a 89       	ldd	r21, Y+18	; 0x12
    3b98:	6b 89       	ldd	r22, Y+19	; 0x13
    3b9a:	7c 89       	ldd	r23, Y+20	; 0x14
    3b9c:	40 93 a8 07 	sts	0x07A8, r20
    3ba0:	50 93 a9 07 	sts	0x07A9, r21
    3ba4:	60 93 aa 07 	sts	0x07AA, r22
    3ba8:	70 93 ab 07 	sts	0x07AB, r23
    3bac:	fd e7       	ldi	r31, 0x7D	; 125
    3bae:	f0 93 ac 07 	sts	0x07AC, r31
    3bb2:	80 91 a8 07 	lds	r24, 0x07A8
    3bb6:	90 91 a9 07 	lds	r25, 0x07A9
    3bba:	89 27       	eor	r24, r25
    3bbc:	85 25       	eor	r24, r5
    3bbe:	90 91 aa 07 	lds	r25, 0x07AA
    3bc2:	89 27       	eor	r24, r25
    3bc4:	90 91 ab 07 	lds	r25, 0x07AB
    3bc8:	89 27       	eor	r24, r25
    3bca:	80 93 ad 07 	sts	0x07AD, r24
    3bce:	78 94       	sei
    3bd0:	10 91 24 01 	lds	r17, 0x0124
    3bd4:	93 cf       	rjmp	.-218    	; 0x3afc <main+0x2d8>
    3bd6:	88 e2       	ldi	r24, 0x28	; 40
    3bd8:	0e 94 f9 0d 	call	0x1bf2	; 0x1bf2 <report.2058>
    3bdc:	e0 e0       	ldi	r30, 0x00	; 0
    3bde:	ce 2e       	mov	r12, r30
    3be0:	e0 e0       	ldi	r30, 0x00	; 0
    3be2:	de 2e       	mov	r13, r30
    3be4:	10 e0       	ldi	r17, 0x00	; 0
    3be6:	68 e0       	ldi	r22, 0x08	; 8
    3be8:	70 e0       	ldi	r23, 0x00	; 0
    3bea:	c7 01       	movw	r24, r14
    3bec:	0e 94 24 0e 	call	0x1c48	; 0x1c48 <serial_to_sram>
    3bf0:	88 23       	and	r24, r24
    3bf2:	89 f0       	breq	.+34     	; 0x3c16 <main+0x3f2>
    3bf4:	88 30       	cpi	r24, 0x08	; 8
    3bf6:	08 f4       	brcc	.+2      	; 0x3bfa <main+0x3d6>
    3bf8:	21 c1       	rjmp	.+578    	; 0x3e3c <main+0x618>
    3bfa:	89 85       	ldd	r24, Y+9	; 0x09
    3bfc:	82 30       	cpi	r24, 0x02	; 2
    3bfe:	d8 f0       	brcs	.+54     	; 0x3c36 <main+0x412>
    3c00:	8e 3f       	cpi	r24, 0xFE	; 254
    3c02:	c9 f0       	breq	.+50     	; 0x3c36 <main+0x412>
    3c04:	81 e0       	ldi	r24, 0x01	; 1
    3c06:	0e 94 bb 0d 	call	0x1b76	; 0x1b76 <serial_send>
    3c0a:	81 2f       	mov	r24, r17
    3c0c:	0e 94 18 0e 	call	0x1c30	; 0x1c30 <send_escaped>
    3c10:	1a 30       	cpi	r17, 0x0A	; 10
    3c12:	08 f0       	brcs	.+2      	; 0x3c16 <main+0x3f2>
    3c14:	9f cf       	rjmp	.-194    	; 0x3b54 <main+0x330>
    3c16:	81 2f       	mov	r24, r17
    3c18:	90 e0       	ldi	r25, 0x00	; 0
    3c1a:	88 0f       	add	r24, r24
    3c1c:	99 1f       	adc	r25, r25
    3c1e:	88 0f       	add	r24, r24
    3c20:	99 1f       	adc	r25, r25
    3c22:	88 0f       	add	r24, r24
    3c24:	99 1f       	adc	r25, r25
    3c26:	6f ef       	ldi	r22, 0xFF	; 255
    3c28:	80 50       	subi	r24, 0x00	; 0
    3c2a:	90 40       	sbci	r25, 0x00	; 0
    3c2c:	0e 94 e1 22 	call	0x45c2	; 0x45c2 <__eeupd_byte_m328p>
    3c30:	10 91 24 01 	lds	r17, 0x0124
    3c34:	63 cf       	rjmp	.-314    	; 0x3afc <main+0x2d8>
    3c36:	aa 85       	ldd	r26, Y+10	; 0x0a
    3c38:	bb 85       	ldd	r27, Y+11	; 0x0b
    3c3a:	20 e0       	ldi	r18, 0x00	; 0
    3c3c:	30 e0       	ldi	r19, 0x00	; 0
    3c3e:	f9 01       	movw	r30, r18
    3c40:	ee 0f       	add	r30, r30
    3c42:	ff 1f       	adc	r31, r31
    3c44:	ee 0f       	add	r30, r30
    3c46:	ff 1f       	adc	r31, r31
    3c48:	ee 0f       	add	r30, r30
    3c4a:	ff 1f       	adc	r31, r31
    3c4c:	ee 56       	subi	r30, 0x6E	; 110
    3c4e:	f7 4f       	sbci	r31, 0xF7	; 247
    3c50:	45 91       	lpm	r20, Z+
    3c52:	54 91       	lpm	r21, Z+
    3c54:	a4 17       	cp	r26, r20
    3c56:	b5 07       	cpc	r27, r21
    3c58:	09 f4       	brne	.+2      	; 0x3c5c <main+0x438>
    3c5a:	a7 c0       	rjmp	.+334    	; 0x3daa <main+0x586>
    3c5c:	2f 5f       	subi	r18, 0xFF	; 255
    3c5e:	3f 4f       	sbci	r19, 0xFF	; 255
    3c60:	24 30       	cpi	r18, 0x04	; 4
    3c62:	31 05       	cpc	r19, r1
    3c64:	61 f7       	brne	.-40     	; 0x3c3e <main+0x41a>
    3c66:	ce cf       	rjmp	.-100    	; 0x3c04 <main+0x3e0>
    3c68:	88 e2       	ldi	r24, 0x28	; 40
    3c6a:	0e 94 f9 0d 	call	0x1bf2	; 0x1bf2 <report.2058>
    3c6e:	0e 94 5e 0e 	call	0x1cbc	; 0x1cbc <time.constprop.0>
    3c72:	69 8b       	std	Y+17, r22	; 0x11
    3c74:	7a 8b       	std	Y+18, r23	; 0x12
    3c76:	8b 8b       	std	Y+19, r24	; 0x13
    3c78:	9c 8b       	std	Y+20, r25	; 0x14
    3c7a:	0a 8d       	ldd	r16, Y+26	; 0x1a
    3c7c:	1b 8d       	ldd	r17, Y+27	; 0x1b
    3c7e:	f8 01       	movw	r30, r16
    3c80:	81 91       	ld	r24, Z+
    3c82:	8f 01       	movw	r16, r30
    3c84:	0e 94 18 0e 	call	0x1c30	; 0x1c30 <send_escaped>
    3c88:	08 15       	cp	r16, r8
    3c8a:	19 05       	cpc	r17, r9
    3c8c:	c1 f7       	brne	.-16     	; 0x3c7e <main+0x45a>
    3c8e:	62 cf       	rjmp	.-316    	; 0x3b54 <main+0x330>
    3c90:	88 e2       	ldi	r24, 0x28	; 40
    3c92:	0e 94 f9 0d 	call	0x1bf2	; 0x1bf2 <report.2058>
    3c96:	62 e0       	ldi	r22, 0x02	; 2
    3c98:	70 e0       	ldi	r23, 0x00	; 0
    3c9a:	88 a1       	ldd	r24, Y+32	; 0x20
    3c9c:	99 a1       	ldd	r25, Y+33	; 0x21
    3c9e:	0e 94 24 0e 	call	0x1c48	; 0x1c48 <serial_to_sram>
    3ca2:	02 97       	sbiw	r24, 0x02	; 2
    3ca4:	08 f4       	brcc	.+2      	; 0x3ca8 <main+0x484>
    3ca6:	53 cf       	rjmp	.-346    	; 0x3b4e <main+0x32a>
    3ca8:	88 8d       	ldd	r24, Y+24	; 0x18
    3caa:	86 30       	cpi	r24, 0x06	; 6
    3cac:	08 f0       	brcs	.+2      	; 0x3cb0 <main+0x48c>
    3cae:	3e cf       	rjmp	.-388    	; 0x3b2c <main+0x308>
    3cb0:	69 8d       	ldd	r22, Y+25	; 0x19
    3cb2:	90 e0       	ldi	r25, 0x00	; 0
    3cb4:	9c 01       	movw	r18, r24
    3cb6:	26 0f       	add	r18, r22
    3cb8:	31 1d       	adc	r19, r1
    3cba:	27 30       	cpi	r18, 0x07	; 7
    3cbc:	31 05       	cpc	r19, r1
    3cbe:	08 f0       	brcs	.+2      	; 0x3cc2 <main+0x49e>
    3cc0:	c1 c0       	rjmp	.+386    	; 0x3e44 <main+0x620>
    3cc2:	70 e0       	ldi	r23, 0x00	; 0
    3cc4:	80 50       	subi	r24, 0x00	; 0
    3cc6:	9f 4f       	sbci	r25, 0xFF	; 255
    3cc8:	0e 94 24 0e 	call	0x1c48	; 0x1c48 <serial_to_sram>
    3ccc:	29 8d       	ldd	r18, Y+25	; 0x19
    3cce:	30 e0       	ldi	r19, 0x00	; 0
    3cd0:	82 17       	cp	r24, r18
    3cd2:	93 07       	cpc	r25, r19
    3cd4:	08 f4       	brcc	.+2      	; 0x3cd8 <main+0x4b4>
    3cd6:	3b cf       	rjmp	.-394    	; 0x3b4e <main+0x32a>
    3cd8:	3d cf       	rjmp	.-390    	; 0x3b54 <main+0x330>
    3cda:	88 e2       	ldi	r24, 0x28	; 40
    3cdc:	0e 94 f9 0d 	call	0x1bf2	; 0x1bf2 <report.2058>
    3ce0:	00 e0       	ldi	r16, 0x00	; 0
    3ce2:	10 e0       	ldi	r17, 0x00	; 0
    3ce4:	c8 01       	movw	r24, r16
    3ce6:	88 0f       	add	r24, r24
    3ce8:	99 1f       	adc	r25, r25
    3cea:	88 0f       	add	r24, r24
    3cec:	99 1f       	adc	r25, r25
    3cee:	88 0f       	add	r24, r24
    3cf0:	99 1f       	adc	r25, r25
    3cf2:	8b 57       	subi	r24, 0x7B	; 123
    3cf4:	9e 4f       	sbci	r25, 0xFE	; 254
    3cf6:	0e 94 d9 17 	call	0x2fb2	; 0x2fb2 <send_string_from_pgm>
    3cfa:	0f 5f       	subi	r16, 0xFF	; 255
    3cfc:	1f 4f       	sbci	r17, 0xFF	; 255
    3cfe:	00 32       	cpi	r16, 0x20	; 32
    3d00:	11 05       	cpc	r17, r1
    3d02:	81 f7       	brne	.-32     	; 0x3ce4 <main+0x4c0>
    3d04:	27 cf       	rjmp	.-434    	; 0x3b54 <main+0x330>
    3d06:	88 e2       	ldi	r24, 0x28	; 40
    3d08:	0e 94 f9 0d 	call	0x1bf2	; 0x1bf2 <report.2058>
    3d0c:	c1 2c       	mov	r12, r1
    3d0e:	d1 2c       	mov	r13, r1
    3d10:	86 01       	movw	r16, r12
    3d12:	00 0f       	add	r16, r16
    3d14:	11 1f       	adc	r17, r17
    3d16:	00 0f       	add	r16, r16
    3d18:	11 1f       	adc	r17, r17
    3d1a:	00 0f       	add	r16, r16
    3d1c:	11 1f       	adc	r17, r17
    3d1e:	f8 01       	movw	r30, r16
    3d20:	ee 56       	subi	r30, 0x6E	; 110
    3d22:	f7 4f       	sbci	r31, 0xF7	; 247
    3d24:	a5 90       	lpm	r10, Z+
    3d26:	b4 90       	lpm	r11, Z+
    3d28:	8a 2d       	mov	r24, r10
    3d2a:	0e 94 18 0e 	call	0x1c30	; 0x1c30 <send_escaped>
    3d2e:	8b 2d       	mov	r24, r11
    3d30:	0e 94 18 0e 	call	0x1c30	; 0x1c30 <send_escaped>
    3d34:	c8 01       	movw	r24, r16
    3d36:	8c 56       	subi	r24, 0x6C	; 108
    3d38:	97 4f       	sbci	r25, 0xF7	; 247
    3d3a:	0e 94 d9 17 	call	0x2fb2	; 0x2fb2 <send_string_from_pgm>
    3d3e:	c8 01       	movw	r24, r16
    3d40:	8a 56       	subi	r24, 0x6A	; 106
    3d42:	97 4f       	sbci	r25, 0xF7	; 247
    3d44:	0e 94 d9 17 	call	0x2fb2	; 0x2fb2 <send_string_from_pgm>
    3d48:	c8 01       	movw	r24, r16
    3d4a:	88 56       	subi	r24, 0x68	; 104
    3d4c:	97 4f       	sbci	r25, 0xF7	; 247
    3d4e:	0e 94 d9 17 	call	0x2fb2	; 0x2fb2 <send_string_from_pgm>
    3d52:	ff ef       	ldi	r31, 0xFF	; 255
    3d54:	cf 1a       	sub	r12, r31
    3d56:	df 0a       	sbc	r13, r31
    3d58:	84 e0       	ldi	r24, 0x04	; 4
    3d5a:	c8 16       	cp	r12, r24
    3d5c:	d1 04       	cpc	r13, r1
    3d5e:	c1 f6       	brne	.-80     	; 0x3d10 <main+0x4ec>
    3d60:	f9 ce       	rjmp	.-526    	; 0x3b54 <main+0x330>
    3d62:	88 e2       	ldi	r24, 0x28	; 40
    3d64:	0e 94 f9 0d 	call	0x1bf2	; 0x1bf2 <report.2058>
    3d68:	63 e0       	ldi	r22, 0x03	; 3
    3d6a:	70 e0       	ldi	r23, 0x00	; 0
    3d6c:	c4 01       	movw	r24, r8
    3d6e:	0e 94 24 0e 	call	0x1c48	; 0x1c48 <serial_to_sram>
    3d72:	03 97       	sbiw	r24, 0x03	; 3
    3d74:	08 f4       	brcc	.+2      	; 0x3d78 <main+0x554>
    3d76:	eb ce       	rjmp	.-554    	; 0x3b4e <main+0x32a>
    3d78:	4d 89       	ldd	r20, Y+21	; 0x15
    3d7a:	5e 89       	ldd	r21, Y+22	; 0x16
    3d7c:	20 e0       	ldi	r18, 0x00	; 0
    3d7e:	30 e0       	ldi	r19, 0x00	; 0
    3d80:	f9 01       	movw	r30, r18
    3d82:	ee 0f       	add	r30, r30
    3d84:	ff 1f       	adc	r31, r31
    3d86:	ee 0f       	add	r30, r30
    3d88:	ff 1f       	adc	r31, r31
    3d8a:	ee 0f       	add	r30, r30
    3d8c:	ff 1f       	adc	r31, r31
    3d8e:	ee 56       	subi	r30, 0x6E	; 110
    3d90:	f7 4f       	sbci	r31, 0xF7	; 247
    3d92:	85 91       	lpm	r24, Z+
    3d94:	94 91       	lpm	r25, Z+
    3d96:	48 17       	cp	r20, r24
    3d98:	59 07       	cpc	r21, r25
    3d9a:	09 f4       	brne	.+2      	; 0x3d9e <main+0x57a>
    3d9c:	59 c0       	rjmp	.+178    	; 0x3e50 <main+0x62c>
    3d9e:	2f 5f       	subi	r18, 0xFF	; 255
    3da0:	3f 4f       	sbci	r19, 0xFF	; 255
    3da2:	24 30       	cpi	r18, 0x04	; 4
    3da4:	31 05       	cpc	r19, r1
    3da6:	61 f7       	brne	.-40     	; 0x3d80 <main+0x55c>
    3da8:	c1 ce       	rjmp	.-638    	; 0x3b2c <main+0x308>
    3daa:	48 e0       	ldi	r20, 0x08	; 8
    3dac:	50 e0       	ldi	r21, 0x00	; 0
    3dae:	b6 01       	movw	r22, r12
    3db0:	c7 01       	movw	r24, r14
    3db2:	0e 94 d1 22 	call	0x45a2	; 0x45a2 <__eeupd_block_m328p>
    3db6:	1f 5f       	subi	r17, 0xFF	; 255
    3db8:	f8 e0       	ldi	r31, 0x08	; 8
    3dba:	cf 0e       	add	r12, r31
    3dbc:	d1 1c       	adc	r13, r1
    3dbe:	1a 30       	cpi	r17, 0x0A	; 10
    3dc0:	09 f0       	breq	.+2      	; 0x3dc4 <main+0x5a0>
    3dc2:	11 cf       	rjmp	.-478    	; 0x3be6 <main+0x3c2>
    3dc4:	c7 ce       	rjmp	.-626    	; 0x3b54 <main+0x330>
    3dc6:	88 e2       	ldi	r24, 0x28	; 40
    3dc8:	0e 94 f9 0d 	call	0x1bf2	; 0x1bf2 <report.2058>
    3dcc:	f0 e0       	ldi	r31, 0x00	; 0
    3dce:	cf 2e       	mov	r12, r31
    3dd0:	f0 e0       	ldi	r31, 0x00	; 0
    3dd2:	df 2e       	mov	r13, r31
    3dd4:	48 e0       	ldi	r20, 0x08	; 8
    3dd6:	50 e0       	ldi	r21, 0x00	; 0
    3dd8:	b6 01       	movw	r22, r12
    3dda:	8c 8d       	ldd	r24, Y+28	; 0x1c
    3ddc:	9d 8d       	ldd	r25, Y+29	; 0x1d
    3dde:	0e 94 c1 22 	call	0x4582	; 0x4582 <__eerd_block_m328p>
    3de2:	89 81       	ldd	r24, Y+1	; 0x01
    3de4:	8f 3f       	cpi	r24, 0xFF	; 255
    3de6:	09 f4       	brne	.+2      	; 0x3dea <main+0x5c6>
    3de8:	b5 ce       	rjmp	.-662    	; 0x3b54 <main+0x330>
    3dea:	0e 8d       	ldd	r16, Y+30	; 0x1e
    3dec:	1f 8d       	ldd	r17, Y+31	; 0x1f
    3dee:	03 c0       	rjmp	.+6      	; 0x3df6 <main+0x5d2>
    3df0:	f8 01       	movw	r30, r16
    3df2:	81 91       	ld	r24, Z+
    3df4:	8f 01       	movw	r16, r30
    3df6:	0e 94 18 0e 	call	0x1c30	; 0x1c30 <send_escaped>
    3dfa:	0e 15       	cp	r16, r14
    3dfc:	1f 05       	cpc	r17, r15
    3dfe:	c1 f7       	brne	.-16     	; 0x3df0 <main+0x5cc>
    3e00:	f8 e0       	ldi	r31, 0x08	; 8
    3e02:	cf 0e       	add	r12, r31
    3e04:	d1 1c       	adc	r13, r1
    3e06:	80 e5       	ldi	r24, 0x50	; 80
    3e08:	c8 16       	cp	r12, r24
    3e0a:	80 e0       	ldi	r24, 0x00	; 0
    3e0c:	d8 06       	cpc	r13, r24
    3e0e:	11 f7       	brne	.-60     	; 0x3dd4 <main+0x5b0>
    3e10:	a1 ce       	rjmp	.-702    	; 0x3b54 <main+0x330>
    3e12:	91 e0       	ldi	r25, 0x01	; 1
    3e14:	90 93 24 01 	sts	0x0124, r25
    3e18:	90 e0       	ldi	r25, 0x00	; 0
    3e1a:	88 0f       	add	r24, r24
    3e1c:	99 1f       	adc	r25, r25
    3e1e:	88 0f       	add	r24, r24
    3e20:	99 1f       	adc	r25, r25
    3e22:	88 0f       	add	r24, r24
    3e24:	99 1f       	adc	r25, r25
    3e26:	8b 57       	subi	r24, 0x7B	; 123
    3e28:	9e 4f       	sbci	r25, 0xFE	; 254
    3e2a:	90 93 2a 01 	sts	0x012A, r25
    3e2e:	80 93 29 01 	sts	0x0129, r24
    3e32:	0e 94 8c 18 	call	0x3118	; 0x3118 <init_current_effect.2061>
    3e36:	10 91 24 01 	lds	r17, 0x0124
    3e3a:	60 ce       	rjmp	.-832    	; 0x3afc <main+0x2d8>
    3e3c:	80 e0       	ldi	r24, 0x00	; 0
    3e3e:	0e 94 bb 0d 	call	0x1b76	; 0x1b76 <serial_send>
    3e42:	e9 ce       	rjmp	.-558    	; 0x3c16 <main+0x3f2>
    3e44:	82 e0       	ldi	r24, 0x02	; 2
    3e46:	0e 94 bb 0d 	call	0x1b76	; 0x1b76 <serial_send>
    3e4a:	10 91 24 01 	lds	r17, 0x0124
    3e4e:	56 ce       	rjmp	.-852    	; 0x3afc <main+0x2d8>
    3e50:	8f 89       	ldd	r24, Y+23	; 0x17
    3e52:	fa 01       	movw	r30, r20
    3e54:	09 95       	icall
    3e56:	10 91 24 01 	lds	r17, 0x0124
    3e5a:	50 ce       	rjmp	.-864    	; 0x3afc <main+0x2d8>
    3e5c:	80 e0       	ldi	r24, 0x00	; 0
    3e5e:	0e 94 25 0d 	call	0x1a4a	; 0x1a4a <select_playlist_item.2051>
    3e62:	0e 94 8c 18 	call	0x3118	; 0x3118 <init_current_effect.2061>
    3e66:	65 cd       	rjmp	.-1334   	; 0x3932 <main+0x10e>
    3e68:	80 91 af 07 	lds	r24, 0x07AF
    3e6c:	90 e0       	ldi	r25, 0x00	; 0
    3e6e:	88 0f       	add	r24, r24
    3e70:	99 1f       	adc	r25, r25
    3e72:	88 0f       	add	r24, r24
    3e74:	99 1f       	adc	r25, r25
    3e76:	88 0f       	add	r24, r24
    3e78:	99 1f       	adc	r25, r25
    3e7a:	8b 57       	subi	r24, 0x7B	; 123
    3e7c:	9e 4f       	sbci	r25, 0xFE	; 254
    3e7e:	90 93 2a 01 	sts	0x012A, r25
    3e82:	80 93 29 01 	sts	0x0129, r24
    3e86:	0e 94 8c 18 	call	0x3118	; 0x3118 <init_current_effect.2061>
    3e8a:	53 cd       	rjmp	.-1370   	; 0x3932 <main+0x10e>
    3e8c:	0e 94 d5 0c 	call	0x19aa	; 0x19aa <send_pulse.part.1.2007>
    3e90:	89 2b       	or	r24, r25
    3e92:	09 f4       	brne	.+2      	; 0x3e96 <main+0x672>
    3e94:	2c cd       	rjmp	.-1448   	; 0x38ee <main+0xca>
    3e96:	81 e0       	ldi	r24, 0x01	; 1
    3e98:	80 93 13 01 	sts	0x0113, r24
    3e9c:	28 cd       	rjmp	.-1456   	; 0x38ee <main+0xca>

00003e9e <__subsf3>:
    3e9e:	50 58       	subi	r21, 0x80	; 128

00003ea0 <__addsf3>:
    3ea0:	bb 27       	eor	r27, r27
    3ea2:	aa 27       	eor	r26, r26
    3ea4:	0e d0       	rcall	.+28     	; 0x3ec2 <__addsf3x>
    3ea6:	70 c1       	rjmp	.+736    	; 0x4188 <__fp_round>
    3ea8:	61 d1       	rcall	.+706    	; 0x416c <__fp_pscA>
    3eaa:	30 f0       	brcs	.+12     	; 0x3eb8 <__addsf3+0x18>
    3eac:	66 d1       	rcall	.+716    	; 0x417a <__fp_pscB>
    3eae:	20 f0       	brcs	.+8      	; 0x3eb8 <__addsf3+0x18>
    3eb0:	31 f4       	brne	.+12     	; 0x3ebe <__addsf3+0x1e>
    3eb2:	9f 3f       	cpi	r25, 0xFF	; 255
    3eb4:	11 f4       	brne	.+4      	; 0x3eba <__addsf3+0x1a>
    3eb6:	1e f4       	brtc	.+6      	; 0x3ebe <__addsf3+0x1e>
    3eb8:	56 c1       	rjmp	.+684    	; 0x4166 <__fp_nan>
    3eba:	0e f4       	brtc	.+2      	; 0x3ebe <__addsf3+0x1e>
    3ebc:	e0 95       	com	r30
    3ebe:	e7 fb       	bst	r30, 7
    3ec0:	4c c1       	rjmp	.+664    	; 0x415a <__fp_inf>

00003ec2 <__addsf3x>:
    3ec2:	e9 2f       	mov	r30, r25
    3ec4:	72 d1       	rcall	.+740    	; 0x41aa <__fp_split3>
    3ec6:	80 f3       	brcs	.-32     	; 0x3ea8 <__addsf3+0x8>
    3ec8:	ba 17       	cp	r27, r26
    3eca:	62 07       	cpc	r22, r18
    3ecc:	73 07       	cpc	r23, r19
    3ece:	84 07       	cpc	r24, r20
    3ed0:	95 07       	cpc	r25, r21
    3ed2:	18 f0       	brcs	.+6      	; 0x3eda <__addsf3x+0x18>
    3ed4:	71 f4       	brne	.+28     	; 0x3ef2 <__addsf3x+0x30>
    3ed6:	9e f5       	brtc	.+102    	; 0x3f3e <__addsf3x+0x7c>
    3ed8:	8a c1       	rjmp	.+788    	; 0x41ee <__fp_zero>
    3eda:	0e f4       	brtc	.+2      	; 0x3ede <__addsf3x+0x1c>
    3edc:	e0 95       	com	r30
    3ede:	0b 2e       	mov	r0, r27
    3ee0:	ba 2f       	mov	r27, r26
    3ee2:	a0 2d       	mov	r26, r0
    3ee4:	0b 01       	movw	r0, r22
    3ee6:	b9 01       	movw	r22, r18
    3ee8:	90 01       	movw	r18, r0
    3eea:	0c 01       	movw	r0, r24
    3eec:	ca 01       	movw	r24, r20
    3eee:	a0 01       	movw	r20, r0
    3ef0:	11 24       	eor	r1, r1
    3ef2:	ff 27       	eor	r31, r31
    3ef4:	59 1b       	sub	r21, r25
    3ef6:	99 f0       	breq	.+38     	; 0x3f1e <__addsf3x+0x5c>
    3ef8:	59 3f       	cpi	r21, 0xF9	; 249
    3efa:	50 f4       	brcc	.+20     	; 0x3f10 <__addsf3x+0x4e>
    3efc:	50 3e       	cpi	r21, 0xE0	; 224
    3efe:	68 f1       	brcs	.+90     	; 0x3f5a <__addsf3x+0x98>
    3f00:	1a 16       	cp	r1, r26
    3f02:	f0 40       	sbci	r31, 0x00	; 0
    3f04:	a2 2f       	mov	r26, r18
    3f06:	23 2f       	mov	r18, r19
    3f08:	34 2f       	mov	r19, r20
    3f0a:	44 27       	eor	r20, r20
    3f0c:	58 5f       	subi	r21, 0xF8	; 248
    3f0e:	f3 cf       	rjmp	.-26     	; 0x3ef6 <__addsf3x+0x34>
    3f10:	46 95       	lsr	r20
    3f12:	37 95       	ror	r19
    3f14:	27 95       	ror	r18
    3f16:	a7 95       	ror	r26
    3f18:	f0 40       	sbci	r31, 0x00	; 0
    3f1a:	53 95       	inc	r21
    3f1c:	c9 f7       	brne	.-14     	; 0x3f10 <__addsf3x+0x4e>
    3f1e:	7e f4       	brtc	.+30     	; 0x3f3e <__addsf3x+0x7c>
    3f20:	1f 16       	cp	r1, r31
    3f22:	ba 0b       	sbc	r27, r26
    3f24:	62 0b       	sbc	r22, r18
    3f26:	73 0b       	sbc	r23, r19
    3f28:	84 0b       	sbc	r24, r20
    3f2a:	ba f0       	brmi	.+46     	; 0x3f5a <__addsf3x+0x98>
    3f2c:	91 50       	subi	r25, 0x01	; 1
    3f2e:	a1 f0       	breq	.+40     	; 0x3f58 <__addsf3x+0x96>
    3f30:	ff 0f       	add	r31, r31
    3f32:	bb 1f       	adc	r27, r27
    3f34:	66 1f       	adc	r22, r22
    3f36:	77 1f       	adc	r23, r23
    3f38:	88 1f       	adc	r24, r24
    3f3a:	c2 f7       	brpl	.-16     	; 0x3f2c <__addsf3x+0x6a>
    3f3c:	0e c0       	rjmp	.+28     	; 0x3f5a <__addsf3x+0x98>
    3f3e:	ba 0f       	add	r27, r26
    3f40:	62 1f       	adc	r22, r18
    3f42:	73 1f       	adc	r23, r19
    3f44:	84 1f       	adc	r24, r20
    3f46:	48 f4       	brcc	.+18     	; 0x3f5a <__addsf3x+0x98>
    3f48:	87 95       	ror	r24
    3f4a:	77 95       	ror	r23
    3f4c:	67 95       	ror	r22
    3f4e:	b7 95       	ror	r27
    3f50:	f7 95       	ror	r31
    3f52:	9e 3f       	cpi	r25, 0xFE	; 254
    3f54:	08 f0       	brcs	.+2      	; 0x3f58 <__addsf3x+0x96>
    3f56:	b3 cf       	rjmp	.-154    	; 0x3ebe <__addsf3+0x1e>
    3f58:	93 95       	inc	r25
    3f5a:	88 0f       	add	r24, r24
    3f5c:	08 f0       	brcs	.+2      	; 0x3f60 <__addsf3x+0x9e>
    3f5e:	99 27       	eor	r25, r25
    3f60:	ee 0f       	add	r30, r30
    3f62:	97 95       	ror	r25
    3f64:	87 95       	ror	r24
    3f66:	08 95       	ret

00003f68 <__cmpsf2>:
    3f68:	d4 d0       	rcall	.+424    	; 0x4112 <__fp_cmp>
    3f6a:	08 f4       	brcc	.+2      	; 0x3f6e <__cmpsf2+0x6>
    3f6c:	81 e0       	ldi	r24, 0x01	; 1
    3f6e:	08 95       	ret

00003f70 <__divsf3>:
    3f70:	0c d0       	rcall	.+24     	; 0x3f8a <__divsf3x>
    3f72:	0a c1       	rjmp	.+532    	; 0x4188 <__fp_round>
    3f74:	02 d1       	rcall	.+516    	; 0x417a <__fp_pscB>
    3f76:	40 f0       	brcs	.+16     	; 0x3f88 <__divsf3+0x18>
    3f78:	f9 d0       	rcall	.+498    	; 0x416c <__fp_pscA>
    3f7a:	30 f0       	brcs	.+12     	; 0x3f88 <__divsf3+0x18>
    3f7c:	21 f4       	brne	.+8      	; 0x3f86 <__divsf3+0x16>
    3f7e:	5f 3f       	cpi	r21, 0xFF	; 255
    3f80:	19 f0       	breq	.+6      	; 0x3f88 <__divsf3+0x18>
    3f82:	eb c0       	rjmp	.+470    	; 0x415a <__fp_inf>
    3f84:	51 11       	cpse	r21, r1
    3f86:	34 c1       	rjmp	.+616    	; 0x41f0 <__fp_szero>
    3f88:	ee c0       	rjmp	.+476    	; 0x4166 <__fp_nan>

00003f8a <__divsf3x>:
    3f8a:	0f d1       	rcall	.+542    	; 0x41aa <__fp_split3>
    3f8c:	98 f3       	brcs	.-26     	; 0x3f74 <__divsf3+0x4>

00003f8e <__divsf3_pse>:
    3f8e:	99 23       	and	r25, r25
    3f90:	c9 f3       	breq	.-14     	; 0x3f84 <__divsf3+0x14>
    3f92:	55 23       	and	r21, r21
    3f94:	b1 f3       	breq	.-20     	; 0x3f82 <__divsf3+0x12>
    3f96:	95 1b       	sub	r25, r21
    3f98:	55 0b       	sbc	r21, r21
    3f9a:	bb 27       	eor	r27, r27
    3f9c:	aa 27       	eor	r26, r26
    3f9e:	62 17       	cp	r22, r18
    3fa0:	73 07       	cpc	r23, r19
    3fa2:	84 07       	cpc	r24, r20
    3fa4:	38 f0       	brcs	.+14     	; 0x3fb4 <__divsf3_pse+0x26>
    3fa6:	9f 5f       	subi	r25, 0xFF	; 255
    3fa8:	5f 4f       	sbci	r21, 0xFF	; 255
    3faa:	22 0f       	add	r18, r18
    3fac:	33 1f       	adc	r19, r19
    3fae:	44 1f       	adc	r20, r20
    3fb0:	aa 1f       	adc	r26, r26
    3fb2:	a9 f3       	breq	.-22     	; 0x3f9e <__divsf3_pse+0x10>
    3fb4:	33 d0       	rcall	.+102    	; 0x401c <__divsf3_pse+0x8e>
    3fb6:	0e 2e       	mov	r0, r30
    3fb8:	3a f0       	brmi	.+14     	; 0x3fc8 <__divsf3_pse+0x3a>
    3fba:	e0 e8       	ldi	r30, 0x80	; 128
    3fbc:	30 d0       	rcall	.+96     	; 0x401e <__divsf3_pse+0x90>
    3fbe:	91 50       	subi	r25, 0x01	; 1
    3fc0:	50 40       	sbci	r21, 0x00	; 0
    3fc2:	e6 95       	lsr	r30
    3fc4:	00 1c       	adc	r0, r0
    3fc6:	ca f7       	brpl	.-14     	; 0x3fba <__divsf3_pse+0x2c>
    3fc8:	29 d0       	rcall	.+82     	; 0x401c <__divsf3_pse+0x8e>
    3fca:	fe 2f       	mov	r31, r30
    3fcc:	27 d0       	rcall	.+78     	; 0x401c <__divsf3_pse+0x8e>
    3fce:	66 0f       	add	r22, r22
    3fd0:	77 1f       	adc	r23, r23
    3fd2:	88 1f       	adc	r24, r24
    3fd4:	bb 1f       	adc	r27, r27
    3fd6:	26 17       	cp	r18, r22
    3fd8:	37 07       	cpc	r19, r23
    3fda:	48 07       	cpc	r20, r24
    3fdc:	ab 07       	cpc	r26, r27
    3fde:	b0 e8       	ldi	r27, 0x80	; 128
    3fe0:	09 f0       	breq	.+2      	; 0x3fe4 <__divsf3_pse+0x56>
    3fe2:	bb 0b       	sbc	r27, r27
    3fe4:	80 2d       	mov	r24, r0
    3fe6:	bf 01       	movw	r22, r30
    3fe8:	ff 27       	eor	r31, r31
    3fea:	93 58       	subi	r25, 0x83	; 131
    3fec:	5f 4f       	sbci	r21, 0xFF	; 255
    3fee:	2a f0       	brmi	.+10     	; 0x3ffa <__divsf3_pse+0x6c>
    3ff0:	9e 3f       	cpi	r25, 0xFE	; 254
    3ff2:	51 05       	cpc	r21, r1
    3ff4:	68 f0       	brcs	.+26     	; 0x4010 <__divsf3_pse+0x82>
    3ff6:	b1 c0       	rjmp	.+354    	; 0x415a <__fp_inf>
    3ff8:	fb c0       	rjmp	.+502    	; 0x41f0 <__fp_szero>
    3ffa:	5f 3f       	cpi	r21, 0xFF	; 255
    3ffc:	ec f3       	brlt	.-6      	; 0x3ff8 <__divsf3_pse+0x6a>
    3ffe:	98 3e       	cpi	r25, 0xE8	; 232
    4000:	dc f3       	brlt	.-10     	; 0x3ff8 <__divsf3_pse+0x6a>
    4002:	86 95       	lsr	r24
    4004:	77 95       	ror	r23
    4006:	67 95       	ror	r22
    4008:	b7 95       	ror	r27
    400a:	f7 95       	ror	r31
    400c:	9f 5f       	subi	r25, 0xFF	; 255
    400e:	c9 f7       	brne	.-14     	; 0x4002 <__divsf3_pse+0x74>
    4010:	88 0f       	add	r24, r24
    4012:	91 1d       	adc	r25, r1
    4014:	96 95       	lsr	r25
    4016:	87 95       	ror	r24
    4018:	97 f9       	bld	r25, 7
    401a:	08 95       	ret
    401c:	e1 e0       	ldi	r30, 0x01	; 1
    401e:	66 0f       	add	r22, r22
    4020:	77 1f       	adc	r23, r23
    4022:	88 1f       	adc	r24, r24
    4024:	bb 1f       	adc	r27, r27
    4026:	62 17       	cp	r22, r18
    4028:	73 07       	cpc	r23, r19
    402a:	84 07       	cpc	r24, r20
    402c:	ba 07       	cpc	r27, r26
    402e:	20 f0       	brcs	.+8      	; 0x4038 <__divsf3_pse+0xaa>
    4030:	62 1b       	sub	r22, r18
    4032:	73 0b       	sbc	r23, r19
    4034:	84 0b       	sbc	r24, r20
    4036:	ba 0b       	sbc	r27, r26
    4038:	ee 1f       	adc	r30, r30
    403a:	88 f7       	brcc	.-30     	; 0x401e <__divsf3_pse+0x90>
    403c:	e0 95       	com	r30
    403e:	08 95       	ret

00004040 <__fixunssfsi>:
    4040:	bc d0       	rcall	.+376    	; 0x41ba <__fp_splitA>
    4042:	88 f0       	brcs	.+34     	; 0x4066 <__fixunssfsi+0x26>
    4044:	9f 57       	subi	r25, 0x7F	; 127
    4046:	90 f0       	brcs	.+36     	; 0x406c <__fixunssfsi+0x2c>
    4048:	b9 2f       	mov	r27, r25
    404a:	99 27       	eor	r25, r25
    404c:	b7 51       	subi	r27, 0x17	; 23
    404e:	a0 f0       	brcs	.+40     	; 0x4078 <__fixunssfsi+0x38>
    4050:	d1 f0       	breq	.+52     	; 0x4086 <__fixunssfsi+0x46>
    4052:	66 0f       	add	r22, r22
    4054:	77 1f       	adc	r23, r23
    4056:	88 1f       	adc	r24, r24
    4058:	99 1f       	adc	r25, r25
    405a:	1a f0       	brmi	.+6      	; 0x4062 <__fixunssfsi+0x22>
    405c:	ba 95       	dec	r27
    405e:	c9 f7       	brne	.-14     	; 0x4052 <__fixunssfsi+0x12>
    4060:	12 c0       	rjmp	.+36     	; 0x4086 <__fixunssfsi+0x46>
    4062:	b1 30       	cpi	r27, 0x01	; 1
    4064:	81 f0       	breq	.+32     	; 0x4086 <__fixunssfsi+0x46>
    4066:	c3 d0       	rcall	.+390    	; 0x41ee <__fp_zero>
    4068:	b1 e0       	ldi	r27, 0x01	; 1
    406a:	08 95       	ret
    406c:	c0 c0       	rjmp	.+384    	; 0x41ee <__fp_zero>
    406e:	67 2f       	mov	r22, r23
    4070:	78 2f       	mov	r23, r24
    4072:	88 27       	eor	r24, r24
    4074:	b8 5f       	subi	r27, 0xF8	; 248
    4076:	39 f0       	breq	.+14     	; 0x4086 <__fixunssfsi+0x46>
    4078:	b9 3f       	cpi	r27, 0xF9	; 249
    407a:	cc f3       	brlt	.-14     	; 0x406e <__fixunssfsi+0x2e>
    407c:	86 95       	lsr	r24
    407e:	77 95       	ror	r23
    4080:	67 95       	ror	r22
    4082:	b3 95       	inc	r27
    4084:	d9 f7       	brne	.-10     	; 0x407c <__fixunssfsi+0x3c>
    4086:	3e f4       	brtc	.+14     	; 0x4096 <__fixunssfsi+0x56>
    4088:	90 95       	com	r25
    408a:	80 95       	com	r24
    408c:	70 95       	com	r23
    408e:	61 95       	neg	r22
    4090:	7f 4f       	sbci	r23, 0xFF	; 255
    4092:	8f 4f       	sbci	r24, 0xFF	; 255
    4094:	9f 4f       	sbci	r25, 0xFF	; 255
    4096:	08 95       	ret

00004098 <__floatunsisf>:
    4098:	e8 94       	clt
    409a:	09 c0       	rjmp	.+18     	; 0x40ae <__floatsisf+0x12>

0000409c <__floatsisf>:
    409c:	97 fb       	bst	r25, 7
    409e:	3e f4       	brtc	.+14     	; 0x40ae <__floatsisf+0x12>
    40a0:	90 95       	com	r25
    40a2:	80 95       	com	r24
    40a4:	70 95       	com	r23
    40a6:	61 95       	neg	r22
    40a8:	7f 4f       	sbci	r23, 0xFF	; 255
    40aa:	8f 4f       	sbci	r24, 0xFF	; 255
    40ac:	9f 4f       	sbci	r25, 0xFF	; 255
    40ae:	99 23       	and	r25, r25
    40b0:	a9 f0       	breq	.+42     	; 0x40dc <__floatsisf+0x40>
    40b2:	f9 2f       	mov	r31, r25
    40b4:	96 e9       	ldi	r25, 0x96	; 150
    40b6:	bb 27       	eor	r27, r27
    40b8:	93 95       	inc	r25
    40ba:	f6 95       	lsr	r31
    40bc:	87 95       	ror	r24
    40be:	77 95       	ror	r23
    40c0:	67 95       	ror	r22
    40c2:	b7 95       	ror	r27
    40c4:	f1 11       	cpse	r31, r1
    40c6:	f8 cf       	rjmp	.-16     	; 0x40b8 <__floatsisf+0x1c>
    40c8:	fa f4       	brpl	.+62     	; 0x4108 <__floatsisf+0x6c>
    40ca:	bb 0f       	add	r27, r27
    40cc:	11 f4       	brne	.+4      	; 0x40d2 <__floatsisf+0x36>
    40ce:	60 ff       	sbrs	r22, 0
    40d0:	1b c0       	rjmp	.+54     	; 0x4108 <__floatsisf+0x6c>
    40d2:	6f 5f       	subi	r22, 0xFF	; 255
    40d4:	7f 4f       	sbci	r23, 0xFF	; 255
    40d6:	8f 4f       	sbci	r24, 0xFF	; 255
    40d8:	9f 4f       	sbci	r25, 0xFF	; 255
    40da:	16 c0       	rjmp	.+44     	; 0x4108 <__floatsisf+0x6c>
    40dc:	88 23       	and	r24, r24
    40de:	11 f0       	breq	.+4      	; 0x40e4 <__floatsisf+0x48>
    40e0:	96 e9       	ldi	r25, 0x96	; 150
    40e2:	11 c0       	rjmp	.+34     	; 0x4106 <__floatsisf+0x6a>
    40e4:	77 23       	and	r23, r23
    40e6:	21 f0       	breq	.+8      	; 0x40f0 <__floatsisf+0x54>
    40e8:	9e e8       	ldi	r25, 0x8E	; 142
    40ea:	87 2f       	mov	r24, r23
    40ec:	76 2f       	mov	r23, r22
    40ee:	05 c0       	rjmp	.+10     	; 0x40fa <__floatsisf+0x5e>
    40f0:	66 23       	and	r22, r22
    40f2:	71 f0       	breq	.+28     	; 0x4110 <__floatsisf+0x74>
    40f4:	96 e8       	ldi	r25, 0x86	; 134
    40f6:	86 2f       	mov	r24, r22
    40f8:	70 e0       	ldi	r23, 0x00	; 0
    40fa:	60 e0       	ldi	r22, 0x00	; 0
    40fc:	2a f0       	brmi	.+10     	; 0x4108 <__floatsisf+0x6c>
    40fe:	9a 95       	dec	r25
    4100:	66 0f       	add	r22, r22
    4102:	77 1f       	adc	r23, r23
    4104:	88 1f       	adc	r24, r24
    4106:	da f7       	brpl	.-10     	; 0x40fe <__floatsisf+0x62>
    4108:	88 0f       	add	r24, r24
    410a:	96 95       	lsr	r25
    410c:	87 95       	ror	r24
    410e:	97 f9       	bld	r25, 7
    4110:	08 95       	ret

00004112 <__fp_cmp>:
    4112:	99 0f       	add	r25, r25
    4114:	00 08       	sbc	r0, r0
    4116:	55 0f       	add	r21, r21
    4118:	aa 0b       	sbc	r26, r26
    411a:	e0 e8       	ldi	r30, 0x80	; 128
    411c:	fe ef       	ldi	r31, 0xFE	; 254
    411e:	16 16       	cp	r1, r22
    4120:	17 06       	cpc	r1, r23
    4122:	e8 07       	cpc	r30, r24
    4124:	f9 07       	cpc	r31, r25
    4126:	c0 f0       	brcs	.+48     	; 0x4158 <__fp_cmp+0x46>
    4128:	12 16       	cp	r1, r18
    412a:	13 06       	cpc	r1, r19
    412c:	e4 07       	cpc	r30, r20
    412e:	f5 07       	cpc	r31, r21
    4130:	98 f0       	brcs	.+38     	; 0x4158 <__fp_cmp+0x46>
    4132:	62 1b       	sub	r22, r18
    4134:	73 0b       	sbc	r23, r19
    4136:	84 0b       	sbc	r24, r20
    4138:	95 0b       	sbc	r25, r21
    413a:	39 f4       	brne	.+14     	; 0x414a <__fp_cmp+0x38>
    413c:	0a 26       	eor	r0, r26
    413e:	61 f0       	breq	.+24     	; 0x4158 <__fp_cmp+0x46>
    4140:	23 2b       	or	r18, r19
    4142:	24 2b       	or	r18, r20
    4144:	25 2b       	or	r18, r21
    4146:	21 f4       	brne	.+8      	; 0x4150 <__fp_cmp+0x3e>
    4148:	08 95       	ret
    414a:	0a 26       	eor	r0, r26
    414c:	09 f4       	brne	.+2      	; 0x4150 <__fp_cmp+0x3e>
    414e:	a1 40       	sbci	r26, 0x01	; 1
    4150:	a6 95       	lsr	r26
    4152:	8f ef       	ldi	r24, 0xFF	; 255
    4154:	81 1d       	adc	r24, r1
    4156:	81 1d       	adc	r24, r1
    4158:	08 95       	ret

0000415a <__fp_inf>:
    415a:	97 f9       	bld	r25, 7
    415c:	9f 67       	ori	r25, 0x7F	; 127
    415e:	80 e8       	ldi	r24, 0x80	; 128
    4160:	70 e0       	ldi	r23, 0x00	; 0
    4162:	60 e0       	ldi	r22, 0x00	; 0
    4164:	08 95       	ret

00004166 <__fp_nan>:
    4166:	9f ef       	ldi	r25, 0xFF	; 255
    4168:	80 ec       	ldi	r24, 0xC0	; 192
    416a:	08 95       	ret

0000416c <__fp_pscA>:
    416c:	00 24       	eor	r0, r0
    416e:	0a 94       	dec	r0
    4170:	16 16       	cp	r1, r22
    4172:	17 06       	cpc	r1, r23
    4174:	18 06       	cpc	r1, r24
    4176:	09 06       	cpc	r0, r25
    4178:	08 95       	ret

0000417a <__fp_pscB>:
    417a:	00 24       	eor	r0, r0
    417c:	0a 94       	dec	r0
    417e:	12 16       	cp	r1, r18
    4180:	13 06       	cpc	r1, r19
    4182:	14 06       	cpc	r1, r20
    4184:	05 06       	cpc	r0, r21
    4186:	08 95       	ret

00004188 <__fp_round>:
    4188:	09 2e       	mov	r0, r25
    418a:	03 94       	inc	r0
    418c:	00 0c       	add	r0, r0
    418e:	11 f4       	brne	.+4      	; 0x4194 <__fp_round+0xc>
    4190:	88 23       	and	r24, r24
    4192:	52 f0       	brmi	.+20     	; 0x41a8 <__fp_round+0x20>
    4194:	bb 0f       	add	r27, r27
    4196:	40 f4       	brcc	.+16     	; 0x41a8 <__fp_round+0x20>
    4198:	bf 2b       	or	r27, r31
    419a:	11 f4       	brne	.+4      	; 0x41a0 <__fp_round+0x18>
    419c:	60 ff       	sbrs	r22, 0
    419e:	04 c0       	rjmp	.+8      	; 0x41a8 <__fp_round+0x20>
    41a0:	6f 5f       	subi	r22, 0xFF	; 255
    41a2:	7f 4f       	sbci	r23, 0xFF	; 255
    41a4:	8f 4f       	sbci	r24, 0xFF	; 255
    41a6:	9f 4f       	sbci	r25, 0xFF	; 255
    41a8:	08 95       	ret

000041aa <__fp_split3>:
    41aa:	57 fd       	sbrc	r21, 7
    41ac:	90 58       	subi	r25, 0x80	; 128
    41ae:	44 0f       	add	r20, r20
    41b0:	55 1f       	adc	r21, r21
    41b2:	59 f0       	breq	.+22     	; 0x41ca <__fp_splitA+0x10>
    41b4:	5f 3f       	cpi	r21, 0xFF	; 255
    41b6:	71 f0       	breq	.+28     	; 0x41d4 <__fp_splitA+0x1a>
    41b8:	47 95       	ror	r20

000041ba <__fp_splitA>:
    41ba:	88 0f       	add	r24, r24
    41bc:	97 fb       	bst	r25, 7
    41be:	99 1f       	adc	r25, r25
    41c0:	61 f0       	breq	.+24     	; 0x41da <__fp_splitA+0x20>
    41c2:	9f 3f       	cpi	r25, 0xFF	; 255
    41c4:	79 f0       	breq	.+30     	; 0x41e4 <__fp_splitA+0x2a>
    41c6:	87 95       	ror	r24
    41c8:	08 95       	ret
    41ca:	12 16       	cp	r1, r18
    41cc:	13 06       	cpc	r1, r19
    41ce:	14 06       	cpc	r1, r20
    41d0:	55 1f       	adc	r21, r21
    41d2:	f2 cf       	rjmp	.-28     	; 0x41b8 <__fp_split3+0xe>
    41d4:	46 95       	lsr	r20
    41d6:	f1 df       	rcall	.-30     	; 0x41ba <__fp_splitA>
    41d8:	08 c0       	rjmp	.+16     	; 0x41ea <__fp_splitA+0x30>
    41da:	16 16       	cp	r1, r22
    41dc:	17 06       	cpc	r1, r23
    41de:	18 06       	cpc	r1, r24
    41e0:	99 1f       	adc	r25, r25
    41e2:	f1 cf       	rjmp	.-30     	; 0x41c6 <__fp_splitA+0xc>
    41e4:	86 95       	lsr	r24
    41e6:	71 05       	cpc	r23, r1
    41e8:	61 05       	cpc	r22, r1
    41ea:	08 94       	sec
    41ec:	08 95       	ret

000041ee <__fp_zero>:
    41ee:	e8 94       	clt

000041f0 <__fp_szero>:
    41f0:	bb 27       	eor	r27, r27
    41f2:	66 27       	eor	r22, r22
    41f4:	77 27       	eor	r23, r23
    41f6:	cb 01       	movw	r24, r22
    41f8:	97 f9       	bld	r25, 7
    41fa:	08 95       	ret

000041fc <__gesf2>:
    41fc:	8a df       	rcall	.-236    	; 0x4112 <__fp_cmp>
    41fe:	08 f4       	brcc	.+2      	; 0x4202 <__gesf2+0x6>
    4200:	8f ef       	ldi	r24, 0xFF	; 255
    4202:	08 95       	ret

00004204 <__mulsf3>:
    4204:	0b d0       	rcall	.+22     	; 0x421c <__mulsf3x>
    4206:	c0 cf       	rjmp	.-128    	; 0x4188 <__fp_round>
    4208:	b1 df       	rcall	.-158    	; 0x416c <__fp_pscA>
    420a:	28 f0       	brcs	.+10     	; 0x4216 <__mulsf3+0x12>
    420c:	b6 df       	rcall	.-148    	; 0x417a <__fp_pscB>
    420e:	18 f0       	brcs	.+6      	; 0x4216 <__mulsf3+0x12>
    4210:	95 23       	and	r25, r21
    4212:	09 f0       	breq	.+2      	; 0x4216 <__mulsf3+0x12>
    4214:	a2 cf       	rjmp	.-188    	; 0x415a <__fp_inf>
    4216:	a7 cf       	rjmp	.-178    	; 0x4166 <__fp_nan>
    4218:	11 24       	eor	r1, r1
    421a:	ea cf       	rjmp	.-44     	; 0x41f0 <__fp_szero>

0000421c <__mulsf3x>:
    421c:	c6 df       	rcall	.-116    	; 0x41aa <__fp_split3>
    421e:	a0 f3       	brcs	.-24     	; 0x4208 <__mulsf3+0x4>

00004220 <__mulsf3_pse>:
    4220:	95 9f       	mul	r25, r21
    4222:	d1 f3       	breq	.-12     	; 0x4218 <__mulsf3+0x14>
    4224:	95 0f       	add	r25, r21
    4226:	50 e0       	ldi	r21, 0x00	; 0
    4228:	55 1f       	adc	r21, r21
    422a:	62 9f       	mul	r22, r18
    422c:	f0 01       	movw	r30, r0
    422e:	72 9f       	mul	r23, r18
    4230:	bb 27       	eor	r27, r27
    4232:	f0 0d       	add	r31, r0
    4234:	b1 1d       	adc	r27, r1
    4236:	63 9f       	mul	r22, r19
    4238:	aa 27       	eor	r26, r26
    423a:	f0 0d       	add	r31, r0
    423c:	b1 1d       	adc	r27, r1
    423e:	aa 1f       	adc	r26, r26
    4240:	64 9f       	mul	r22, r20
    4242:	66 27       	eor	r22, r22
    4244:	b0 0d       	add	r27, r0
    4246:	a1 1d       	adc	r26, r1
    4248:	66 1f       	adc	r22, r22
    424a:	82 9f       	mul	r24, r18
    424c:	22 27       	eor	r18, r18
    424e:	b0 0d       	add	r27, r0
    4250:	a1 1d       	adc	r26, r1
    4252:	62 1f       	adc	r22, r18
    4254:	73 9f       	mul	r23, r19
    4256:	b0 0d       	add	r27, r0
    4258:	a1 1d       	adc	r26, r1
    425a:	62 1f       	adc	r22, r18
    425c:	83 9f       	mul	r24, r19
    425e:	a0 0d       	add	r26, r0
    4260:	61 1d       	adc	r22, r1
    4262:	22 1f       	adc	r18, r18
    4264:	74 9f       	mul	r23, r20
    4266:	33 27       	eor	r19, r19
    4268:	a0 0d       	add	r26, r0
    426a:	61 1d       	adc	r22, r1
    426c:	23 1f       	adc	r18, r19
    426e:	84 9f       	mul	r24, r20
    4270:	60 0d       	add	r22, r0
    4272:	21 1d       	adc	r18, r1
    4274:	82 2f       	mov	r24, r18
    4276:	76 2f       	mov	r23, r22
    4278:	6a 2f       	mov	r22, r26
    427a:	11 24       	eor	r1, r1
    427c:	9f 57       	subi	r25, 0x7F	; 127
    427e:	50 40       	sbci	r21, 0x00	; 0
    4280:	8a f0       	brmi	.+34     	; 0x42a4 <__mulsf3_pse+0x84>
    4282:	e1 f0       	breq	.+56     	; 0x42bc <__mulsf3_pse+0x9c>
    4284:	88 23       	and	r24, r24
    4286:	4a f0       	brmi	.+18     	; 0x429a <__mulsf3_pse+0x7a>
    4288:	ee 0f       	add	r30, r30
    428a:	ff 1f       	adc	r31, r31
    428c:	bb 1f       	adc	r27, r27
    428e:	66 1f       	adc	r22, r22
    4290:	77 1f       	adc	r23, r23
    4292:	88 1f       	adc	r24, r24
    4294:	91 50       	subi	r25, 0x01	; 1
    4296:	50 40       	sbci	r21, 0x00	; 0
    4298:	a9 f7       	brne	.-22     	; 0x4284 <__mulsf3_pse+0x64>
    429a:	9e 3f       	cpi	r25, 0xFE	; 254
    429c:	51 05       	cpc	r21, r1
    429e:	70 f0       	brcs	.+28     	; 0x42bc <__mulsf3_pse+0x9c>
    42a0:	5c cf       	rjmp	.-328    	; 0x415a <__fp_inf>
    42a2:	a6 cf       	rjmp	.-180    	; 0x41f0 <__fp_szero>
    42a4:	5f 3f       	cpi	r21, 0xFF	; 255
    42a6:	ec f3       	brlt	.-6      	; 0x42a2 <__mulsf3_pse+0x82>
    42a8:	98 3e       	cpi	r25, 0xE8	; 232
    42aa:	dc f3       	brlt	.-10     	; 0x42a2 <__mulsf3_pse+0x82>
    42ac:	86 95       	lsr	r24
    42ae:	77 95       	ror	r23
    42b0:	67 95       	ror	r22
    42b2:	b7 95       	ror	r27
    42b4:	f7 95       	ror	r31
    42b6:	e7 95       	ror	r30
    42b8:	9f 5f       	subi	r25, 0xFF	; 255
    42ba:	c1 f7       	brne	.-16     	; 0x42ac <__mulsf3_pse+0x8c>
    42bc:	fe 2b       	or	r31, r30
    42be:	88 0f       	add	r24, r24
    42c0:	91 1d       	adc	r25, r1
    42c2:	96 95       	lsr	r25
    42c4:	87 95       	ror	r24
    42c6:	97 f9       	bld	r25, 7
    42c8:	08 95       	ret

000042ca <sin>:
    42ca:	9f 93       	push	r25
    42cc:	05 d0       	rcall	.+10     	; 0x42d8 <__fp_rempio2>
    42ce:	0f 90       	pop	r0
    42d0:	07 fc       	sbrc	r0, 7
    42d2:	ee 5f       	subi	r30, 0xFE	; 254
    42d4:	28 c0       	rjmp	.+80     	; 0x4326 <__fp_sinus>
    42d6:	47 cf       	rjmp	.-370    	; 0x4166 <__fp_nan>

000042d8 <__fp_rempio2>:
    42d8:	70 df       	rcall	.-288    	; 0x41ba <__fp_splitA>
    42da:	e8 f3       	brcs	.-6      	; 0x42d6 <sin+0xc>
    42dc:	e8 94       	clt
    42de:	e0 e0       	ldi	r30, 0x00	; 0
    42e0:	bb 27       	eor	r27, r27
    42e2:	9f 57       	subi	r25, 0x7F	; 127
    42e4:	f0 f0       	brcs	.+60     	; 0x4322 <__fp_rempio2+0x4a>
    42e6:	2a ed       	ldi	r18, 0xDA	; 218
    42e8:	3f e0       	ldi	r19, 0x0F	; 15
    42ea:	49 ec       	ldi	r20, 0xC9	; 201
    42ec:	06 c0       	rjmp	.+12     	; 0x42fa <__fp_rempio2+0x22>
    42ee:	ee 0f       	add	r30, r30
    42f0:	bb 0f       	add	r27, r27
    42f2:	66 1f       	adc	r22, r22
    42f4:	77 1f       	adc	r23, r23
    42f6:	88 1f       	adc	r24, r24
    42f8:	28 f0       	brcs	.+10     	; 0x4304 <__fp_rempio2+0x2c>
    42fa:	b2 3a       	cpi	r27, 0xA2	; 162
    42fc:	62 07       	cpc	r22, r18
    42fe:	73 07       	cpc	r23, r19
    4300:	84 07       	cpc	r24, r20
    4302:	28 f0       	brcs	.+10     	; 0x430e <__fp_rempio2+0x36>
    4304:	b2 5a       	subi	r27, 0xA2	; 162
    4306:	62 0b       	sbc	r22, r18
    4308:	73 0b       	sbc	r23, r19
    430a:	84 0b       	sbc	r24, r20
    430c:	e3 95       	inc	r30
    430e:	9a 95       	dec	r25
    4310:	72 f7       	brpl	.-36     	; 0x42ee <__fp_rempio2+0x16>
    4312:	80 38       	cpi	r24, 0x80	; 128
    4314:	30 f4       	brcc	.+12     	; 0x4322 <__fp_rempio2+0x4a>
    4316:	9a 95       	dec	r25
    4318:	bb 0f       	add	r27, r27
    431a:	66 1f       	adc	r22, r22
    431c:	77 1f       	adc	r23, r23
    431e:	88 1f       	adc	r24, r24
    4320:	d2 f7       	brpl	.-12     	; 0x4316 <__fp_rempio2+0x3e>
    4322:	90 48       	sbci	r25, 0x80	; 128
    4324:	13 c0       	rjmp	.+38     	; 0x434c <__fp_mpack_finite>

00004326 <__fp_sinus>:
    4326:	ef 93       	push	r30
    4328:	e0 ff       	sbrs	r30, 0
    432a:	06 c0       	rjmp	.+12     	; 0x4338 <__fp_sinus+0x12>
    432c:	a2 ea       	ldi	r26, 0xA2	; 162
    432e:	2a ed       	ldi	r18, 0xDA	; 218
    4330:	3f e0       	ldi	r19, 0x0F	; 15
    4332:	49 ec       	ldi	r20, 0xC9	; 201
    4334:	5f eb       	ldi	r21, 0xBF	; 191
    4336:	c5 dd       	rcall	.-1142   	; 0x3ec2 <__addsf3x>
    4338:	27 df       	rcall	.-434    	; 0x4188 <__fp_round>
    433a:	0f 90       	pop	r0
    433c:	03 94       	inc	r0
    433e:	01 fc       	sbrc	r0, 1
    4340:	90 58       	subi	r25, 0x80	; 128
    4342:	e8 e6       	ldi	r30, 0x68	; 104
    4344:	f0 e0       	ldi	r31, 0x00	; 0
    4346:	0e c0       	rjmp	.+28     	; 0x4364 <__fp_powsodd>

00004348 <__fp_mpack>:
    4348:	9f 3f       	cpi	r25, 0xFF	; 255
    434a:	31 f0       	breq	.+12     	; 0x4358 <__fp_mpack_finite+0xc>

0000434c <__fp_mpack_finite>:
    434c:	91 50       	subi	r25, 0x01	; 1
    434e:	20 f4       	brcc	.+8      	; 0x4358 <__fp_mpack_finite+0xc>
    4350:	87 95       	ror	r24
    4352:	77 95       	ror	r23
    4354:	67 95       	ror	r22
    4356:	b7 95       	ror	r27
    4358:	88 0f       	add	r24, r24
    435a:	91 1d       	adc	r25, r1
    435c:	96 95       	lsr	r25
    435e:	87 95       	ror	r24
    4360:	97 f9       	bld	r25, 7
    4362:	08 95       	ret

00004364 <__fp_powsodd>:
    4364:	9f 93       	push	r25
    4366:	8f 93       	push	r24
    4368:	7f 93       	push	r23
    436a:	6f 93       	push	r22
    436c:	ff 93       	push	r31
    436e:	ef 93       	push	r30
    4370:	9b 01       	movw	r18, r22
    4372:	ac 01       	movw	r20, r24
    4374:	47 df       	rcall	.-370    	; 0x4204 <__mulsf3>
    4376:	ef 91       	pop	r30
    4378:	ff 91       	pop	r31
    437a:	05 d0       	rcall	.+10     	; 0x4386 <__fp_powser>
    437c:	2f 91       	pop	r18
    437e:	3f 91       	pop	r19
    4380:	4f 91       	pop	r20
    4382:	5f 91       	pop	r21
    4384:	3f cf       	rjmp	.-386    	; 0x4204 <__mulsf3>

00004386 <__fp_powser>:
    4386:	df 93       	push	r29
    4388:	cf 93       	push	r28
    438a:	1f 93       	push	r17
    438c:	0f 93       	push	r16
    438e:	ff 92       	push	r15
    4390:	ef 92       	push	r14
    4392:	df 92       	push	r13
    4394:	7b 01       	movw	r14, r22
    4396:	8c 01       	movw	r16, r24
    4398:	68 94       	set
    439a:	05 c0       	rjmp	.+10     	; 0x43a6 <__fp_powser+0x20>
    439c:	da 2e       	mov	r13, r26
    439e:	ef 01       	movw	r28, r30
    43a0:	3d df       	rcall	.-390    	; 0x421c <__mulsf3x>
    43a2:	fe 01       	movw	r30, r28
    43a4:	e8 94       	clt
    43a6:	a5 91       	lpm	r26, Z+
    43a8:	25 91       	lpm	r18, Z+
    43aa:	35 91       	lpm	r19, Z+
    43ac:	45 91       	lpm	r20, Z+
    43ae:	55 91       	lpm	r21, Z+
    43b0:	ae f3       	brts	.-22     	; 0x439c <__fp_powser+0x16>
    43b2:	ef 01       	movw	r28, r30
    43b4:	86 dd       	rcall	.-1268   	; 0x3ec2 <__addsf3x>
    43b6:	fe 01       	movw	r30, r28
    43b8:	97 01       	movw	r18, r14
    43ba:	a8 01       	movw	r20, r16
    43bc:	da 94       	dec	r13
    43be:	79 f7       	brne	.-34     	; 0x439e <__fp_powser+0x18>
    43c0:	df 90       	pop	r13
    43c2:	ef 90       	pop	r14
    43c4:	ff 90       	pop	r15
    43c6:	0f 91       	pop	r16
    43c8:	1f 91       	pop	r17
    43ca:	cf 91       	pop	r28
    43cc:	df 91       	pop	r29
    43ce:	08 95       	ret

000043d0 <__umulhisi3>:
    43d0:	a2 9f       	mul	r26, r18
    43d2:	b0 01       	movw	r22, r0
    43d4:	b3 9f       	mul	r27, r19
    43d6:	c0 01       	movw	r24, r0
    43d8:	a3 9f       	mul	r26, r19
    43da:	01 d0       	rcall	.+2      	; 0x43de <__umulhisi3+0xe>
    43dc:	b2 9f       	mul	r27, r18
    43de:	70 0d       	add	r23, r0
    43e0:	81 1d       	adc	r24, r1
    43e2:	11 24       	eor	r1, r1
    43e4:	91 1d       	adc	r25, r1
    43e6:	08 95       	ret

000043e8 <__mulsi3>:
    43e8:	db 01       	movw	r26, r22
    43ea:	8f 93       	push	r24
    43ec:	9f 93       	push	r25
    43ee:	0e 94 4e 22 	call	0x449c	; 0x449c <__muluhisi3>
    43f2:	bf 91       	pop	r27
    43f4:	af 91       	pop	r26
    43f6:	a2 9f       	mul	r26, r18
    43f8:	80 0d       	add	r24, r0
    43fa:	91 1d       	adc	r25, r1
    43fc:	a3 9f       	mul	r26, r19
    43fe:	90 0d       	add	r25, r0
    4400:	b2 9f       	mul	r27, r18
    4402:	90 0d       	add	r25, r0
    4404:	11 24       	eor	r1, r1
    4406:	08 95       	ret

00004408 <__udivmodhi4>:
    4408:	aa 1b       	sub	r26, r26
    440a:	bb 1b       	sub	r27, r27
    440c:	51 e1       	ldi	r21, 0x11	; 17
    440e:	07 c0       	rjmp	.+14     	; 0x441e <__udivmodhi4_ep>

00004410 <__udivmodhi4_loop>:
    4410:	aa 1f       	adc	r26, r26
    4412:	bb 1f       	adc	r27, r27
    4414:	a6 17       	cp	r26, r22
    4416:	b7 07       	cpc	r27, r23
    4418:	10 f0       	brcs	.+4      	; 0x441e <__udivmodhi4_ep>
    441a:	a6 1b       	sub	r26, r22
    441c:	b7 0b       	sbc	r27, r23

0000441e <__udivmodhi4_ep>:
    441e:	88 1f       	adc	r24, r24
    4420:	99 1f       	adc	r25, r25
    4422:	5a 95       	dec	r21
    4424:	a9 f7       	brne	.-22     	; 0x4410 <__udivmodhi4_loop>
    4426:	80 95       	com	r24
    4428:	90 95       	com	r25
    442a:	bc 01       	movw	r22, r24
    442c:	cd 01       	movw	r24, r26
    442e:	08 95       	ret

00004430 <__divmodhi4>:
    4430:	97 fb       	bst	r25, 7
    4432:	07 2e       	mov	r0, r23
    4434:	16 f4       	brtc	.+4      	; 0x443a <__divmodhi4+0xa>
    4436:	00 94       	com	r0
    4438:	07 d0       	rcall	.+14     	; 0x4448 <__divmodhi4_neg1>
    443a:	77 fd       	sbrc	r23, 7
    443c:	09 d0       	rcall	.+18     	; 0x4450 <__divmodhi4_neg2>
    443e:	0e 94 04 22 	call	0x4408	; 0x4408 <__udivmodhi4>
    4442:	07 fc       	sbrc	r0, 7
    4444:	05 d0       	rcall	.+10     	; 0x4450 <__divmodhi4_neg2>
    4446:	3e f4       	brtc	.+14     	; 0x4456 <__divmodhi4_exit>

00004448 <__divmodhi4_neg1>:
    4448:	90 95       	com	r25
    444a:	81 95       	neg	r24
    444c:	9f 4f       	sbci	r25, 0xFF	; 255
    444e:	08 95       	ret

00004450 <__divmodhi4_neg2>:
    4450:	70 95       	com	r23
    4452:	61 95       	neg	r22
    4454:	7f 4f       	sbci	r23, 0xFF	; 255

00004456 <__divmodhi4_exit>:
    4456:	08 95       	ret

00004458 <__udivmodsi4>:
    4458:	a1 e2       	ldi	r26, 0x21	; 33
    445a:	1a 2e       	mov	r1, r26
    445c:	aa 1b       	sub	r26, r26
    445e:	bb 1b       	sub	r27, r27
    4460:	fd 01       	movw	r30, r26
    4462:	0d c0       	rjmp	.+26     	; 0x447e <__udivmodsi4_ep>

00004464 <__udivmodsi4_loop>:
    4464:	aa 1f       	adc	r26, r26
    4466:	bb 1f       	adc	r27, r27
    4468:	ee 1f       	adc	r30, r30
    446a:	ff 1f       	adc	r31, r31
    446c:	a2 17       	cp	r26, r18
    446e:	b3 07       	cpc	r27, r19
    4470:	e4 07       	cpc	r30, r20
    4472:	f5 07       	cpc	r31, r21
    4474:	20 f0       	brcs	.+8      	; 0x447e <__udivmodsi4_ep>
    4476:	a2 1b       	sub	r26, r18
    4478:	b3 0b       	sbc	r27, r19
    447a:	e4 0b       	sbc	r30, r20
    447c:	f5 0b       	sbc	r31, r21

0000447e <__udivmodsi4_ep>:
    447e:	66 1f       	adc	r22, r22
    4480:	77 1f       	adc	r23, r23
    4482:	88 1f       	adc	r24, r24
    4484:	99 1f       	adc	r25, r25
    4486:	1a 94       	dec	r1
    4488:	69 f7       	brne	.-38     	; 0x4464 <__udivmodsi4_loop>
    448a:	60 95       	com	r22
    448c:	70 95       	com	r23
    448e:	80 95       	com	r24
    4490:	90 95       	com	r25
    4492:	9b 01       	movw	r18, r22
    4494:	ac 01       	movw	r20, r24
    4496:	bd 01       	movw	r22, r26
    4498:	cf 01       	movw	r24, r30
    449a:	08 95       	ret

0000449c <__muluhisi3>:
    449c:	0e 94 e8 21 	call	0x43d0	; 0x43d0 <__umulhisi3>
    44a0:	a5 9f       	mul	r26, r21
    44a2:	90 0d       	add	r25, r0
    44a4:	b4 9f       	mul	r27, r20
    44a6:	90 0d       	add	r25, r0
    44a8:	a4 9f       	mul	r26, r20
    44aa:	80 0d       	add	r24, r0
    44ac:	91 1d       	adc	r25, r1
    44ae:	11 24       	eor	r1, r1
    44b0:	08 95       	ret

000044b2 <do_rand>:
    44b2:	8f 92       	push	r8
    44b4:	9f 92       	push	r9
    44b6:	af 92       	push	r10
    44b8:	bf 92       	push	r11
    44ba:	cf 92       	push	r12
    44bc:	df 92       	push	r13
    44be:	ef 92       	push	r14
    44c0:	ff 92       	push	r15
    44c2:	cf 93       	push	r28
    44c4:	df 93       	push	r29
    44c6:	ec 01       	movw	r28, r24
    44c8:	68 81       	ld	r22, Y
    44ca:	79 81       	ldd	r23, Y+1	; 0x01
    44cc:	8a 81       	ldd	r24, Y+2	; 0x02
    44ce:	9b 81       	ldd	r25, Y+3	; 0x03
    44d0:	61 15       	cp	r22, r1
    44d2:	71 05       	cpc	r23, r1
    44d4:	81 05       	cpc	r24, r1
    44d6:	91 05       	cpc	r25, r1
    44d8:	21 f4       	brne	.+8      	; 0x44e2 <do_rand+0x30>
    44da:	64 e2       	ldi	r22, 0x24	; 36
    44dc:	79 ed       	ldi	r23, 0xD9	; 217
    44de:	8b e5       	ldi	r24, 0x5B	; 91
    44e0:	97 e0       	ldi	r25, 0x07	; 7
    44e2:	2d e1       	ldi	r18, 0x1D	; 29
    44e4:	33 ef       	ldi	r19, 0xF3	; 243
    44e6:	41 e0       	ldi	r20, 0x01	; 1
    44e8:	50 e0       	ldi	r21, 0x00	; 0
    44ea:	0e 94 fb 22 	call	0x45f6	; 0x45f6 <__divmodsi4>
    44ee:	49 01       	movw	r8, r18
    44f0:	5a 01       	movw	r10, r20
    44f2:	9b 01       	movw	r18, r22
    44f4:	ac 01       	movw	r20, r24
    44f6:	a7 ea       	ldi	r26, 0xA7	; 167
    44f8:	b1 e4       	ldi	r27, 0x41	; 65
    44fa:	0e 94 4e 22 	call	0x449c	; 0x449c <__muluhisi3>
    44fe:	6b 01       	movw	r12, r22
    4500:	7c 01       	movw	r14, r24
    4502:	ac ee       	ldi	r26, 0xEC	; 236
    4504:	b4 ef       	ldi	r27, 0xF4	; 244
    4506:	a5 01       	movw	r20, r10
    4508:	94 01       	movw	r18, r8
    450a:	0e 94 f6 22 	call	0x45ec	; 0x45ec <__mulohisi3>
    450e:	c6 0e       	add	r12, r22
    4510:	d7 1e       	adc	r13, r23
    4512:	e8 1e       	adc	r14, r24
    4514:	f9 1e       	adc	r15, r25
    4516:	f7 fe       	sbrs	r15, 7
    4518:	06 c0       	rjmp	.+12     	; 0x4526 <do_rand+0x74>
    451a:	81 e0       	ldi	r24, 0x01	; 1
    451c:	c8 1a       	sub	r12, r24
    451e:	d1 08       	sbc	r13, r1
    4520:	e1 08       	sbc	r14, r1
    4522:	80 e8       	ldi	r24, 0x80	; 128
    4524:	f8 0a       	sbc	r15, r24
    4526:	c8 82       	st	Y, r12
    4528:	d9 82       	std	Y+1, r13	; 0x01
    452a:	ea 82       	std	Y+2, r14	; 0x02
    452c:	fb 82       	std	Y+3, r15	; 0x03
    452e:	e8 94       	clt
    4530:	d7 f8       	bld	r13, 7
    4532:	ee 24       	eor	r14, r14
    4534:	ff 24       	eor	r15, r15
    4536:	c6 01       	movw	r24, r12
    4538:	df 91       	pop	r29
    453a:	cf 91       	pop	r28
    453c:	ff 90       	pop	r15
    453e:	ef 90       	pop	r14
    4540:	df 90       	pop	r13
    4542:	cf 90       	pop	r12
    4544:	bf 90       	pop	r11
    4546:	af 90       	pop	r10
    4548:	9f 90       	pop	r9
    454a:	8f 90       	pop	r8
    454c:	08 95       	ret

0000454e <rand_r>:
    454e:	0e 94 59 22 	call	0x44b2	; 0x44b2 <do_rand>
    4552:	08 95       	ret

00004554 <rand>:
    4554:	8a e0       	ldi	r24, 0x0A	; 10
    4556:	91 e0       	ldi	r25, 0x01	; 1
    4558:	0e 94 59 22 	call	0x44b2	; 0x44b2 <do_rand>
    455c:	08 95       	ret

0000455e <srand>:
    455e:	a0 e0       	ldi	r26, 0x00	; 0
    4560:	b0 e0       	ldi	r27, 0x00	; 0
    4562:	80 93 0a 01 	sts	0x010A, r24
    4566:	90 93 0b 01 	sts	0x010B, r25
    456a:	a0 93 0c 01 	sts	0x010C, r26
    456e:	b0 93 0d 01 	sts	0x010D, r27
    4572:	08 95       	ret

00004574 <memset>:
    4574:	dc 01       	movw	r26, r24
    4576:	01 c0       	rjmp	.+2      	; 0x457a <memset+0x6>
    4578:	6d 93       	st	X+, r22
    457a:	41 50       	subi	r20, 0x01	; 1
    457c:	50 40       	sbci	r21, 0x00	; 0
    457e:	e0 f7       	brcc	.-8      	; 0x4578 <memset+0x4>
    4580:	08 95       	ret

00004582 <__eerd_block_m328p>:
    4582:	dc 01       	movw	r26, r24
    4584:	cb 01       	movw	r24, r22

00004586 <__eerd_blraw_m328p>:
    4586:	fc 01       	movw	r30, r24
    4588:	f9 99       	sbic	0x1f, 1	; 31
    458a:	fe cf       	rjmp	.-4      	; 0x4588 <__eerd_blraw_m328p+0x2>
    458c:	06 c0       	rjmp	.+12     	; 0x459a <__eerd_blraw_m328p+0x14>
    458e:	f2 bd       	out	0x22, r31	; 34
    4590:	e1 bd       	out	0x21, r30	; 33
    4592:	f8 9a       	sbi	0x1f, 0	; 31
    4594:	31 96       	adiw	r30, 0x01	; 1
    4596:	00 b4       	in	r0, 0x20	; 32
    4598:	0d 92       	st	X+, r0
    459a:	41 50       	subi	r20, 0x01	; 1
    459c:	50 40       	sbci	r21, 0x00	; 0
    459e:	b8 f7       	brcc	.-18     	; 0x458e <__eerd_blraw_m328p+0x8>
    45a0:	08 95       	ret

000045a2 <__eeupd_block_m328p>:
    45a2:	dc 01       	movw	r26, r24
    45a4:	a4 0f       	add	r26, r20
    45a6:	b5 1f       	adc	r27, r21
    45a8:	41 50       	subi	r20, 0x01	; 1
    45aa:	50 40       	sbci	r21, 0x00	; 0
    45ac:	48 f0       	brcs	.+18     	; 0x45c0 <__eeupd_block_m328p+0x1e>
    45ae:	cb 01       	movw	r24, r22
    45b0:	84 0f       	add	r24, r20
    45b2:	95 1f       	adc	r25, r21
    45b4:	2e 91       	ld	r18, -X
    45b6:	0e 94 e2 22 	call	0x45c4	; 0x45c4 <__eeupd_r18_m328p>
    45ba:	41 50       	subi	r20, 0x01	; 1
    45bc:	50 40       	sbci	r21, 0x00	; 0
    45be:	d0 f7       	brcc	.-12     	; 0x45b4 <__eeupd_block_m328p+0x12>
    45c0:	08 95       	ret

000045c2 <__eeupd_byte_m328p>:
    45c2:	26 2f       	mov	r18, r22

000045c4 <__eeupd_r18_m328p>:
    45c4:	f9 99       	sbic	0x1f, 1	; 31
    45c6:	fe cf       	rjmp	.-4      	; 0x45c4 <__eeupd_r18_m328p>
    45c8:	92 bd       	out	0x22, r25	; 34
    45ca:	81 bd       	out	0x21, r24	; 33
    45cc:	f8 9a       	sbi	0x1f, 0	; 31
    45ce:	01 97       	sbiw	r24, 0x01	; 1
    45d0:	00 b4       	in	r0, 0x20	; 32
    45d2:	02 16       	cp	r0, r18
    45d4:	39 f0       	breq	.+14     	; 0x45e4 <__eeupd_r18_m328p+0x20>
    45d6:	1f ba       	out	0x1f, r1	; 31
    45d8:	20 bd       	out	0x20, r18	; 32
    45da:	0f b6       	in	r0, 0x3f	; 63
    45dc:	f8 94       	cli
    45de:	fa 9a       	sbi	0x1f, 2	; 31
    45e0:	f9 9a       	sbi	0x1f, 1	; 31
    45e2:	0f be       	out	0x3f, r0	; 63
    45e4:	08 95       	ret

000045e6 <__mulshisi3>:
    45e6:	b7 ff       	sbrs	r27, 7
    45e8:	0c 94 4e 22 	jmp	0x449c	; 0x449c <__muluhisi3>

000045ec <__mulohisi3>:
    45ec:	0e 94 4e 22 	call	0x449c	; 0x449c <__muluhisi3>
    45f0:	82 1b       	sub	r24, r18
    45f2:	93 0b       	sbc	r25, r19
    45f4:	08 95       	ret

000045f6 <__divmodsi4>:
    45f6:	05 2e       	mov	r0, r21
    45f8:	97 fb       	bst	r25, 7
    45fa:	16 f4       	brtc	.+4      	; 0x4600 <__divmodsi4+0xa>
    45fc:	00 94       	com	r0
    45fe:	07 d0       	rcall	.+14     	; 0x460e <__divmodsi4_neg1>
    4600:	57 fd       	sbrc	r21, 7
    4602:	0d d0       	rcall	.+26     	; 0x461e <__divmodsi4_neg2>
    4604:	0e 94 2c 22 	call	0x4458	; 0x4458 <__udivmodsi4>
    4608:	07 fc       	sbrc	r0, 7
    460a:	09 d0       	rcall	.+18     	; 0x461e <__divmodsi4_neg2>
    460c:	7e f4       	brtc	.+30     	; 0x462c <__divmodsi4_exit>

0000460e <__divmodsi4_neg1>:
    460e:	90 95       	com	r25
    4610:	80 95       	com	r24
    4612:	70 95       	com	r23
    4614:	61 95       	neg	r22
    4616:	7f 4f       	sbci	r23, 0xFF	; 255
    4618:	8f 4f       	sbci	r24, 0xFF	; 255
    461a:	9f 4f       	sbci	r25, 0xFF	; 255
    461c:	08 95       	ret

0000461e <__divmodsi4_neg2>:
    461e:	50 95       	com	r21
    4620:	40 95       	com	r20
    4622:	30 95       	com	r19
    4624:	21 95       	neg	r18
    4626:	3f 4f       	sbci	r19, 0xFF	; 255
    4628:	4f 4f       	sbci	r20, 0xFF	; 255
    462a:	5f 4f       	sbci	r21, 0xFF	; 255

0000462c <__divmodsi4_exit>:
    462c:	08 95       	ret

0000462e <_exit>:
    462e:	f8 94       	cli

00004630 <__stop_program>:
    4630:	ff cf       	rjmp	.-2      	; 0x4630 <__stop_program>
